(lp0
(dp1
Vyelping_since
p2
V2004-10
p3
sVvotes
p4
(dp5
Vfunny
p6
I166
sVuseful
p7
I278
sVcool
p8
I245
ssVuser_id
p9
V18kPq7GPye-YQ3LyKyAZPw
p10
sVname
p11
VRussel
p12
sVelite
p13
(lp14
I2005
aI2006
asVtype
p15
Vuser
p16
sVcompliments
p17
(dp18
Vprofile
p19
I8
sVcute
p20
I15
sVfunny
p21
I11
sVplain
p22
I25
sVwriter
p23
I9
sVnote
p24
I20
sVphotos
p25
I15
sVhot
p26
I48
sVmore
p27
I3
sVcool
p28
I78
ssVfans
p29
I69
sVaverage_stars
p30
F4.14
sVreview_count
p31
I108
sVfriends
p32
(lp33
VrpOyqD_893cqmDAtJLbdog
p34
aV4U9kSBLuBDU391x6bxU-YA
p35
aVfHtTaujcyKvXglE33Z5yIw
p36
aV8J4IIYcqBlFch8T90N923A
p37
aVwy6l_zUo7SN0qrvNRWgySw
p38
aVHDQixQ-WZEV0LVPJlIGQeQ
p39
aVT4kuUr_iJiywOPdyM7gTHQ
p40
aVz_5D4XEIlGAPjG3Os9ix5A
p41
aVi63u3SdbrLsP4FxiSKP0Zw
p42
aVpnrGw4ciBXJ6U5QB2m0F5g
p43
aVytjCBxosVSqCOQ62c4KAxg
p44
aVr5uiIxwJ-I-oHBkNY2Ha3Q
p45
aVniWoSKswEbooJC_M7HMbGw
p46
aVkwoxiKMyoYjB1wTCYAjYRg
p47
aV9A8OuP6XwLwnNb9ov3_Ncw
p48
aV27MmRg8LfbZXNEHkEnKSdA
p49
aVBn4sJUTtKFZQt0FKHF2Adw
p50
aVuguXfIEpI65jSCH5MgUDgA
p51
aV6VZNGc2h2Bn-uyuEXgOt5g
p52
aVAZ8CTtwr-4sGM2kZqF6qig
p53
aVS742m-AuQicMSLDdErrLZQ
p54
aVuGmQ6ab4iVpWn5m61VFhkQ
p55
aVGJYJX4SujVj3BR8v2F9PDQ
p56
aV3shjifK-vZkIHciyy_KbYA
p57
aV4lc_H2Cf7CO0tCgyA3aSVQ
p58
aVTunkp_F1R_uFBJQTsDxD4g
p59
aVB9pKfr27czBbCoAIircZdQ
p60
aVpePGMO6EbDpbaZ7D2m6HIg
p61
aVXRM8W6HUoXbrYKR3BCj9Rg
p62
aV8DqIWXsKXOipfduYEfFpNw
p63
aVdvRVX54Z9f7Om51NsTRX1w
p64
aVCM0saLQmk4oAB17UmQTV-g
p65
aVHANb8-8InWnju-XzBQQSBw
p66
aVJuJeZeQJgv7bUreY7a1SlQ
p67
aV2NVVEEYhhoVELdaPILFrDQ
p68
aVe4M9_S-ASmRys3DvKQfotw
p69
aVXA109o963exKgoVGcg9z7w
p70
aVtVAKdax3Jbf24R7OJB99JQ
p71
aVOMWT-Z6OnJLcg44lCuDuhw
p72
aVd82F_FFtowYtjGtxRySehA
p73
aVpW91HUnVz6ssLZ4dY-ztyQ
p74
aVojQYtstkGXtcryk5I9GTYA
p75
aV4hxVql33ldY_gkf3rG8_3w
p76
aV0arQ82n4mvrc42U8KuoE6g
p77
aVw6Vv-kldGpmvSGqXvTbAdQ
p78
aVNZeCINmoOJ8vsQvYkZAp9w
p79
aVn9ltC5DxMjefffeMfBgcXQ
p80
aVQBj2AL66bEAmK3ULkrn1Gw
p81
aVayZlWyV1M2k_UWx1dreIDg
p82
aVAG1KRDkIa8QCCPsMnINEOg
p83
aVP-lfV8cdAgEOZJkw2dJpsw
p84
aV7Pef9EA21szXXOPJo6Gb5w
p85
aVYvtRBqCqhSIhGGREqcqnQw
p86
aV8M7I2-s5nQ8LSkuCvN0Xqg
p87
aV-ETxy7f37BBQXhw5zJfkrQ
p88
aVTjPt2hD56jfpmtoa6kVVRg
p89
aVuZgFEPEUIWJMaaqvMlxYoA
p90
aVYKppbE7ogNmbtVrluxEF4A
p91
aVD7uXj1_0pE_Fa2YeLkOkyw
p92
aVeVV99D3EZvkuswIvIySKiw
p93
aVPhwgVPqpJlxu40AxAOUBbg
p94
aVgWcz4QFTW76q8VtpIlZEHQ
p95
aVwpcoiQNbO5x0xkZwKFVUFw
p96
aVOt-QjYpIdVsluuxcqidjkA
p97
aVE3C_gEhktux9Ca-Z2fmNTw
p98
aVClaGLOr72DPJlQhRc9HHyQ
p99
aVsc6wS6YOFIgtN2XuJI8_WQ
p100
aVdD5mA6kwVlBHvrNtX9EyZQ
p101
aVqwvgycPC5u4JZv6DfawPqw
p102
aVAs_oVE27fiE-0CbDJwUDiA
p103
aVSuzSrMWoycf4DXL_DMMdNg
p104
aVy0SRKlzVuvj-mbQtbsWx-A
p105
aVqbfQRHLvZk5WSkKY0l_lMw
p106
aVD6A0rn5MIg7AVRrVeouABg
p107
aVKUqpJ9eKREuvlnlitJJRYg
p108
aVgOvKWYXobX_Pgzsz-K8auA
p109
aVxzdZTsR2KKcQfjF4OjJeOw
p110
aVDyfA7aPzRQ81kJnbkuIiJQ
p111
aVtA2suyZG_qWIuNB_HR-YRA
p112
aVR5QmtpSsrQ9mqIxjZIv3uw
p113
aV5T8SdBwiH0jdwatUJ7KFUg
p114
aV1Gfn4nlqPEIvRX4cnctJlg
p115
aVA4_fxqSj4tgYet8OE3jTyA
p116
aVoPD_t6BVpfhvu1-TS4FNzA
p117
aVgn3Y0mWduWrvT1hvu7fv4A
p118
aVNUeLSLukiPPCSK6EVdUo_Q
p119
aVrtrh46NJfksxR4TgljYg9w
p120
aV5zpVMWD-q6nEYapiWrSyXw
p121
aVooZ7TV6IuxuqbFgnqaoSsQ
p122
aV8phGuOZ0NIfeJiTX-ZDZLA
p123
aV8L1p_zlmAB_uWyaW0QTaCg
p124
aVs7ZSag-bHo0C4fSBDJeBDw
p125
aV5ANDwUyQqsRhEl7QBKRFiw
p126
aVKMGF6KAnPRoOTFVXBy9jtQ
p127
aVyk-lz4JUKREUVw9hxk-VZw
p128
aV6uM5lx0DCX4ctQlebtxraw
p129
aVHc6agWZ9jGCxsPAqQwlf2w
p130
aVz39ulrgtvEMB2oeokx0-mw
p131
aVwLt28qh-46LFhKOeByWZ0w
p132
aVR9FFFqYOUmvWjaHqODfzyw
p133
aVp4Jg_rO_AsCWZGMd_w8xjw
p134
aVpJppmQyW74ejj8xCa2SHuA
p135
aVhzaqnSxfRYv_Wbp6CMKtQw
p136
aV0QwV8PJk9PJDFaMNw1Fcsw
p137
aV6pC5j-hfP4xLZB2W0Wi1vg
p138
aV8nAj60xsBjcHXLLSs7cPqw
p139
aVNhbV8AbaQiKNzEU11cbxcQ
p140
aV5Szwd1CSepRXwAFH12nPzQ
p141
aVifD7o8Mi67yNYwgWL5CbKg
p142
aVAaZdXn0I6F5bdIVwGpxdDA
p143
aVYwcacxA7WCB9fryDHDxF8w
p144
aVHBFtzjRarXxDH8xZRSNsPA
p145
aVzi0kxtr5gq0Flg7jYdIlMA
p146
aVoWEdmTYl13VHh1A_Mkhh2g
p147
aVn1GSQ7VT9sTL5MlCWolbNw
p148
aVPO8XNxGUizzzKGHmn24fQQ
p149
aVJTRxzA1AZ8Zfwj7FpH2CnA
p150
aVAixLPxra_4HirfchjPkiWA
p151
aVxOK3i0wgmkpGu54BuIcwQA
p152
aVF9T6m1YdRFreyKDufcyoOQ
p153
aV-cscgA-lVPipPwEX4RmcgQ
p154
aV1UJbOl-jKNIUjroeC4xWxg
p155
aVACLuEsNHV7lfq1O7CHuFaA
p156
aVUyOtYjnavsr-Dtjo6Xy91g
p157
aVJ11gYVC1u9S5jqEg3oh-gQ
p158
aV9LZP7Ll7N9zkuWfA5DUAYw
p159
aVSbM1m5nejHDD1pJePsar9g
p160
aVwF7_-zf7R8Rri7Kq-a0tlw
p161
aVB5o7JC4iRJ7bKPRnoYEIHg
p162
aVSAPz30NHFJ95SBlvz5cTqw
p163
aVfzkO1lGkx8MHhT8S4Rbg3w
p164
aVtlSSQwfHYJany7wPoTH46A
p165
aV2VfhMrTJ9bZ0O4PZmRmxKA
p166
aVodeoZZHRQp6TkeoEQk3eeA
p167
aV2XCsVpAMsGUykrM-BBFEXA
p168
aVqVePixO2kuK0Dr03upCWFg
p169
aVD9CIW04wrcQzZNdCEoASAg
p170
aVG-iuXcbJnX3sA3lhB6nFhQ
p171
aV3utEqyNzFcxH8E8pm7ByPA
p172
aVT5TZfn9_9X-LTbRtaMAgUw
p173
aVfczQCSmaWF78toLEmb0Zsw
p174
aVHyhmpb3UnbjtSEXvgviCow
p175
aVFI-Fjxr3fUBx2q7icnqcfA
p176
aVS8ZY1HEDoECqKrIUY34JOg
p177
aV3JtdBvnY6Wzp22gt5zFwDg
p178
aV470dZswdTHz5aaGPvIYNpg
p179
aVJT5kM6wRwh7cNt8IAuX_sw
p180
aVr7V9Nhes-Eg-lH0cqfpFFw
p181
aV2m3lE8p8T2nFRDxIUaRXew
p182
aVbZFRqP7s0Vszxeu8_IwYow
p183
aVsnd45oedwXxF9tsHUX_6dg
p184
aV8jEK8gxHYg9w6sINujO0MQ
p185
aVLTWY2Ee-SYu8ItVOebD3CQ
p186
aV7zpDhrRZRTGCkAh3SHbEww
p187
aVNSg7k2UFt_HqM2mvsw-n0w
p188
aVegdj4-wXAzYzT5bmTAHYqQ
p189
aVwxhf-RSExCGECZuz_iVV7w
p190
aVC6IOtaaYdLIT5fWd7ZYIuA
p191
aVjntSRFnN_O7QfFzZo24rvA
p192
aVyfQwWLYtqwHKiky1hiTBew
p193
aV6SxnRYFR3GUzGREKSttxJg
p194
aVWZgoM8UuzxjZf1AaWx3qZQ
p195
aVcNj8rheuldPDX9zF6q2yaA
p196
aVOqOCMRpVNvvdPDMhoG_DCA
p197
aV9ZonzxW0DAqIUO_5tDqZig
p198
aVrLQNlHnIKdtoqoU77CbEUQ
p199
aVLbgQK5B_5IkN77FgRJHhrg
p200
aVit23EnutJ6fOjeYQBDKJug
p201
aV1XWzXgFvcu5pU2wj1ONQ_Q
p202
aV92j9xiUMOsM3HviIGoR8Yg
p203
aVAP6udBIStvWLY0T5rS_24A
p204
aVG_PCzMHcOLoMyyEsxW1DFQ
p205
aVZuQ87LQYWRw3AHj-jEiQ1Q
p206
aVzdutsCEMdvc0B8s3_XN3nQ
p207
aVfRbbPPUdMCmL9o39yshi2g
p208
aVpjgE1d3csesAkgn6rQI_RQ
p209
aVC7nUczj6n0ouxWqp1I7cNQ
p210
aVD8EE4gbAiXS3DF_HNRJfAw
p211
aVMilv8k4zZsoCaNFZugKtJw
p212
aVGALRNo-AbcAHxEdmqKl--w
p213
aVXOe-I25-W_FnbYfQyafylw
p214
aV-weTB55ulUzv0E_4laXsqQ
p215
aVkuP0AMnSGgkLfNSt0wOAgA
p216
aVEwMgdjuPXLAuxxu3IOUyKA
p217
aVMx-vxv_V-SQCe76w4RmUfA
p218
aV6xxVdJBdMREj1fCqjm6UtA
p219
aVm61SjiXAIlOY1qAXOHEk4Q
p220
aVR4sYowLqQQEpxWjQbqaFvg
p221
aVOCkge7lzOw33bqMs1244Yw
p222
aVrjJJ8QQg-eqb7mgMxArgBA
p223
aVT_wjLgPOPXry7Bea4MzoVQ
p224
aVhBwbBaBqofCgvkJ3PatuVw
p225
aVepTMlecM8SZNjDhBsd64Jg
p226
aVPUMROYfbVgKypcfJNxs1mw
p227
aV82ZqgHOfUMV1xtpG2KfisA
p228
aVIN2HcBun5PpyfQK8OC68iw
p229
aVyQZL8MTulNh3d3de-N0oug
p230
aVnZFcWvgPU8T4JCjOVvJU8Q
p231
aVFDPjfyyHNfy9tqyxo27QeQ
p232
aVjIuc3nM9R0KWX3v-8OyLsQ
p233
aVF1oGgK3NtTYnyRMxupiiuA
p234
aVnGYaT5sAuqKkd48dqX_2Kw
p235
aVNzP9OoNP8vBMRUSs0UXBNw
p236
aVZTs-go-xYRQOp3PSw_XGDg
p237
aVgc4rNAgbGydNMAPJ85FZag
p238
aVKYuljD4Tovti3J1pdBnT4g
p239
asa(dp240
Vyelping_since
p241
V2004-10
p242
sVvotes
p243
(dp244
Vfunny
p245
I6849
sVuseful
p246
I12642
sVcool
p247
I9837
ssVuser_id
p248
VrpOyqD_893cqmDAtJLbdog
p249
sVname
p250
VJeremy
p251
sVelite
p252
(lp253
I2005
aI2006
aI2007
aI2008
aI2009
aI2010
aI2011
aI2012
aI2013
aI2014
aI2015
asVtype
p254
Vuser
p255
sVcompliments
p256
(dp257
Vprofile
p258
I110
sVcute
p259
I209
sVfunny
p260
I561
sVplain
p261
I921
sVwriter
p262
I290
sVlist
p263
I37
sVnote
p264
I589
sVphotos
p265
I287
sVhot
p266
I1032
sVmore
p267
I129
sVcool
p268
I1521
ssVfans
p269
I1012
sVaverage_stars
p270
F3.64
sVreview_count
p271
I1233
sVfriends
p272
(lp273
V18kPq7GPye-YQ3LyKyAZPw
p274
aV4U9kSBLuBDU391x6bxU-YA
p275
aVfHtTaujcyKvXglE33Z5yIw
p276
aVSIBCL7HBkrP4llolm4SC2A
p277
aV8J4IIYcqBlFch8T90N923A
p278
aVysYmC-ufbdmVEX9yAv-VEQ
p279
aVUTS9XcT14H2ZscRIf0MYHQ
p280
aV1blidZhgxDVSBuJ_dbTU6g
p281
aVHDQixQ-WZEV0LVPJlIGQeQ
p282
aV91ovYNfGfPiqe6GbTcPwTg
p283
aV8VJUJbrfPYJC0vMAtXGR_g
p284
aVT4kuUr_iJiywOPdyM7gTHQ
p285
aVanTtulQ9G2b3SipCEwGVHg
p286
aVRe447krbp0VQVX3Dk4Tsog
p287
aVXejvgD4CrkR7FeIkjwAjtQ
p288
aVYm2-9Rdeb_PPher2F6qksQ
p289
aVi63u3SdbrLsP4FxiSKP0Zw
p290
aVT7t5UdadpHua-YnmiFpcZw
p291
aVpnrGw4ciBXJ6U5QB2m0F5g
p292
aVytjCBxosVSqCOQ62c4KAxg
p293
aVK4FAia2Iy5MVnmBLfS-mCg
p294
aVo-6ZHG2iUO3oooMXQawd9g
p295
aVr5uiIxwJ-I-oHBkNY2Ha3Q
p296
aVniWoSKswEbooJC_M7HMbGw
p297
aVkwoxiKMyoYjB1wTCYAjYRg
p298
aVF4sfffJ8-VCNFLUT0q6Gtg
p299
aVTNJRTBrl0yjtpAACr1Bthg
p300
aVW0M8csYKD2ryUsr6OsACyA
p301
aVPOQZrdj2otEnb0Le1oLWjg
p302
aVHKvXA96cbqAawKCU7xyGSw
p303
aVEoTooNBcxu0Hy0-XeZI8aw
p304
aV9A8OuP6XwLwnNb9ov3_Ncw
p305
aV27MmRg8LfbZXNEHkEnKSdA
p306
aVWsPgO3ycZjRp7wFh18JdMQ
p307
aVBn4sJUTtKFZQt0FKHF2Adw
p308
aVAC84oF7Ciuw7M52RszgWUA
p309
aVuguXfIEpI65jSCH5MgUDgA
p310
aV6VZNGc2h2Bn-uyuEXgOt5g
p311
aVAZl5xknQ2QzJGUfd0V_mjQ
p312
aVpz97SxRe1Vk-5_K6EB9OSA
p313
aVAZ8CTtwr-4sGM2kZqF6qig
p314
aVxaPwzbtkselbxI472WIjsA
p315
aV4ohJEFpIk99NGGNdSa2Uig
p316
aVq1dyK6mo5QkHI0ZBPXeCQQ
p317
aVxRpSYEOS4MN_fnfjBPy5dw
p318
aVGcb3QKjGjvH_GdzLpM-fAg
p319
aVuGmQ6ab4iVpWn5m61VFhkQ
p320
aVGJYJX4SujVj3BR8v2F9PDQ
p321
aVEh9SSFnh7xOF8N3X6ESPOA
p322
aVDglSIRnl69GUqHvVnG3QaA
p323
aV3shjifK-vZkIHciyy_KbYA
p324
aVxafscyoSZPnchPkzGyDAWw
p325
aV4lc_H2Cf7CO0tCgyA3aSVQ
p326
aVTunkp_F1R_uFBJQTsDxD4g
p327
aVyAIA9J3FQmg6XwAfXMLh-g
p328
aVIsVIVpgV7VralvYD4DEQYg
p329
aV-6k_vUBna1kzXBjyBOCeqg
p330
aVB9pKfr27czBbCoAIircZdQ
p331
aV7WGcHwBkXKRCTL2AG--3CA
p332
aVORXFUXpvHloPYVyQ4C5oqA
p333
aVRir-YRPPClKXDFQbc3BsVw
p334
aVwj-UBmM6p-TkfD4Xg_zY7A
p335
aVG4LfUOgAglHfZLILESSb0w
p336
aV-1Q1s_NMGjBLBULA8z_npg
p337
aVUDIR9Aojno4FzqYfOuwunQ
p338
aVnw-QVHwrhhwZpVuR5DWdpg
p339
aVqaeKxVt-KnFKKzKxKVrKDA
p340
aVuyf9AeK95dh4oxs36bMQkw
p341
aVlxZSVeJz6KEBW1nlA3JKJg
p342
aVzTWH9b_ItSdLOK9ypeFOIw
p343
aVpePGMO6EbDpbaZ7D2m6HIg
p344
aVMKkaAk3EZumQVvnMjd_avQ
p345
aVXRM8W6HUoXbrYKR3BCj9Rg
p346
aV7FuLnS_-b79GG-33mwLaMg
p347
aVo5KEicAZaO72mHgSYVZ8bw
p348
aV8DqIWXsKXOipfduYEfFpNw
p349
aVGZ9kx3IQe15JWrVGrAQZ8A
p350
aV7uxXuCcpw9-mUS3OJVw8aQ
p351
aVp64irD26M0-tgKj0z1jgKw
p352
aVdvRVX54Z9f7Om51NsTRX1w
p353
aVK2PDI4_GJLUTwjq0jA2viQ
p354
aVWF4Bz2Z37AGdFZSVqOObOg
p355
aVCM0saLQmk4oAB17UmQTV-g
p356
aVjIJXDhJ08iCh5KxZjIuRPQ
p357
aVHANb8-8InWnju-XzBQQSBw
p358
aVCvQhlr_VtwGqQBbiFOjOaw
p359
aVfrz1uzgKdxjOt8bWZCMmVQ
p360
aV-jXrmFgORGmiTEfxaKlA6w
p361
aVS6sAyi61H7ecAj6qfNMKNQ
p362
aVt51FxYOLqwbTSBeyPbHHVQ
p363
aVe4M9_S-ASmRys3DvKQfotw
p364
aVweLT87ID6D0yPWg5d3atcQ
p365
aVOMWT-Z6OnJLcg44lCuDuhw
p366
aVd82F_FFtowYtjGtxRySehA
p367
aVpW91HUnVz6ssLZ4dY-ztyQ
p368
aVojQYtstkGXtcryk5I9GTYA
p369
aVn0vqc-DbRK84XOLKHp5wjw
p370
aV5StJwPvmlJj0yMHBj1PATw
p371
aV8w23JX96mElm3ViwtS_WKQ
p372
aV4hxVql33ldY_gkf3rG8_3w
p373
aV9V14_mnEi28kNnN_aVhuSA
p374
aVkxkSjuIHutMTS88y1-b_Ew
p375
aV0arQ82n4mvrc42U8KuoE6g
p376
aVCvWhDNP2pLVYdlHg_e4DXQ
p377
aVWGf64PeXIZtdoqkBj0-_zA
p378
aVYA6LcxRxXEyMN-jpFSBarA
p379
aVZZ5hV2jcxchiZo6C9AXq_Q
p380
aVlDnXkR-Hc5FyPZ7T5oPyRQ
p381
aV3_VAhzONbrThOlZr_6crpQ
p382
aVNZeCINmoOJ8vsQvYkZAp9w
p383
aVhfdh6M4M8cOqG4McE1aoYA
p384
aVLroJKi7_BWqDT7lbHvt6kg
p385
aV0FqVxW9PVqh66vMbNJ4Y1A
p386
aVeB_WpbBxBTABkzes-ZQTRw
p387
aVQBj2AL66bEAmK3ULkrn1Gw
p388
aVayZlWyV1M2k_UWx1dreIDg
p389
aV1--cOFkdo345uvepQwfGEA
p390
aVhGyKkRaJkOpl6jagEZAWcg
p391
aVJguVDOCjcNicW5zCwuqehg
p392
aVms9P6qj-mKUGkBJRY0yAHA
p393
aVI38kTTMpIQfm6CZQIeZKgg
p394
aVmj2X5F2xh2xxPTaw2HsnGg
p395
aVqq57IKwroZux85aC6hM38w
p396
aVKUtzHIs-Y2Va3STDlWa0iA
p397
aVGi62agSW34oYrCcEdB9UGg
p398
aVZQf-UQL8ChAmTfN9SrUBfA
p399
aVP-lfV8cdAgEOZJkw2dJpsw
p400
aV7Pef9EA21szXXOPJo6Gb5w
p401
aVQcn-UlswGM8JmrYbf4WMLA
p402
aVQ4rDqPKe1Iko7Kldj9ADBw
p403
aVMfSPSNoF2iWWt7ZdCA8T8Q
p404
aV4RK2egxIKfC55TGg2ToulA
p405
aVHHCn5JGkJc5Lp3EaGw6baA
p406
aVhlyE3S6w-949MA-u8TXsjA
p407
aVhDuhc9RQOf3ydg1PxLkRxQ
p408
aVZQduSjrBcIYjO1d8IaXxVw
p409
aVPuuRW29sMLIN0wuoZAllFA
p410
aVKLIgcDSCque_hMrtjnUcow
p411
aV8dwO6Y8Vsss1hGEeXm1acw
p412
aVQ1lOqbip5AspTHHBJ4VDlA
p413
aVARe8Nr_YehB2ubsGJhZ-hg
p414
aVoDYf8_HV9WpSxrLmJ1j5JA
p415
aV_YI2xCPY90YqTazh-xL_Pg
p416
aV-ETxy7f37BBQXhw5zJfkrQ
p417
aVoUa5MYdA6FdEJO-HBB0DaA
p418
aVjDCblyKGE1UrulT7Dyzb0Q
p419
aV8wQ8fugCcUEMO7lXg8yDGQ
p420
aVBDx8yOOvNE5UWs_xsIOXwA
p421
aVWwl_HlxMyfnPhH4iKbzdOA
p422
aV49pqdhT4su49QnwmXNdyIA
p423
aVuZgFEPEUIWJMaaqvMlxYoA
p424
aVgvqh39oy-m10H7aNyVBL8g
p425
aVYKppbE7ogNmbtVrluxEF4A
p426
aVqB_WxOFVPKlK8DmbhPXGhw
p427
aVGwj-__sLYJUXO3S2ajHUDw
p428
aVMofhftznXiuBxID1GNOSYA
p429
aV9dmIMMQT6XJ19RSsWioU5Q
p430
aVD7uXj1_0pE_Fa2YeLkOkyw
p431
aVzzWUzYAj8SXwohidVLax9Q
p432
aVeVV99D3EZvkuswIvIySKiw
p433
aVPhwgVPqpJlxu40AxAOUBbg
p434
aVLiAq4ejWXt9ooo9X5wHQRg
p435
aVajCb2CmRkd5V0OvzsjYC5w
p436
aVCkY48UaWOmLhsdc_NTfFBA
p437
aVZ78lp4o03tZbGRMwLZw0nA
p438
aVJ4xFxIXDH6nXdF5rTYiBCw
p439
aVpbUs7oReAS4lhMvEzwNVhA
p440
aVAtFGH7Spf7QMNm-BFcshWQ
p441
aV_cDnFQHMrwo5Xg_1Z8QQNA
p442
aV-e0zsU6ootfv9ImTZ7wb2A
p443
aVwpcoiQNbO5x0xkZwKFVUFw
p444
aVeSAmN-5RAu8y1igSvz_yJw
p445
aVUpt8QGZF8LFWRSw3LUopIg
p446
aVwOSwzy3p0cuwbv5xjZW1bA
p447
aVOt-QjYpIdVsluuxcqidjkA
p448
aVE3C_gEhktux9Ca-Z2fmNTw
p449
aVHpuonncxvaKSixI3bM5Ofw
p450
aVmGSyq3buf9AggxuXuZRkyQ
p451
aVClaGLOr72DPJlQhRc9HHyQ
p452
aVYX-O9N2rg1DNH-IbyD1GLw
p453
aVwHr9izcKk8uLc6tucnXskQ
p454
aVsc6wS6YOFIgtN2XuJI8_WQ
p455
aVPMgE5Yqv7QL_cTjjInyYIg
p456
aVzdhIXcofp-N9WfC0tiQ5jg
p457
aV6HJzAxgP9XB-JhyjeOEFaA
p458
aVtn5AIW1NVjTI4oNdrpqwiA
p459
aVdThnQfCZCpbLXwqRqnQhFg
p460
aVbUjVCdMEdlHUZTj-uiBLUQ
p461
aVyWeouzBJp_kwplPtwcl_ig
p462
aVhO4UkN8RniS204O1PdxoBg
p463
aVX1YVsT7fadktjP0WvraqtA
p464
aVzlta0Zhv3qrlPT4wgmx1zQ
p465
aV0BxWPocgVIAzZUBQ_Nrimw
p466
aVCz6cUmulaEii__wUcQ6QVw
p467
aVt1h9wl-Q4zGnt3JX860Ztw
p468
aV4YhwHzvNj-Rg8IhLntmhCw
p469
aVOwcvQW8hbLjcU8eW-1xCIw
p470
aV-QjeoLnIeKStNfGIq5KGDw
p471
aViR1pShxMP5Aiwo1DZzGJlg
p472
aVMg0G8_Wa_FoNQO3Kv7RDNw
p473
aVG5PsRwFSjF4Sql7ME0ENsw
p474
aVSuzSrMWoycf4DXL_DMMdNg
p475
aVniQLnZVEz-E9KtbqFRKWcA
p476
aVdNBfuG6I4nadibbjFX7SiA
p477
aVy0SRKlzVuvj-mbQtbsWx-A
p478
aV2hBQmM99bJWBc4TLXyFCxg
p479
aV-E6yYsngVZqIUHlX856sbw
p480
aVhpAFdPtU6Am_agXJT856gw
p481
aVn7WUEZeNKCYgC950r3rbvA
p482
aVBuaNITlWZwJskEhBbz-H6w
p483
aVqbfQRHLvZk5WSkKY0l_lMw
p484
aV6kJ9OXgotJzYBdWWTOjpCg
p485
aV10O3dYXmF3R_OMcXBnTkWg
p486
aVD6A0rn5MIg7AVRrVeouABg
p487
aVKUqpJ9eKREuvlnlitJJRYg
p488
aVa0pG_Dl4sKb3yNps7I_hMQ
p489
aVx7_Wyt9kjqn3itW9y0DHbA
p490
aVtAAi5iUrQY1OKYnuChDJGQ
p491
aV5axKCCwwpcfPTzv7fS819A
p492
aVBgqGtOskxyKzP2oGR8uQ8g
p493
aVdTyeHgCDwu9binCwjw7d5g
p494
aVMMCiQSRLdhyUzkHyksST_w
p495
aVYqXkPv4dittwSxctmZbqkw
p496
aVgOvKWYXobX_Pgzsz-K8auA
p497
aV8qoEnuFvMAQWv7qmhKyulw
p498
aV6JXh-O4gFMm-ugGad6PvQQ
p499
aVbrRr5SRQyzYa6S623Kvd5Q
p500
aVb0bhYMBU9vk_smKjby-u_A
p501
aVmuSuq2Ep_PXjvLYXHNStig
p502
aV77s2qg6JOqXy69stUku6ew
p503
aVy4F30s5qp4VBInqmt4Upyg
p504
aVWTvD6w7arH4S74rAlefC9A
p505
aV2176sNPv5tchjgJcV-2yiA
p506
aVDyfA7aPzRQ81kJnbkuIiJQ
p507
aVNhP0IQNpZkw6tQ0drfd-qQ
p508
aVfA1-M_FoudCU9xxpauJBaw
p509
aVtA2suyZG_qWIuNB_HR-YRA
p510
aVC3edE64xBOfWC6HJbxRJxQ
p511
aVPzYWzSKJ_HcwNKPD_f1cXw
p512
aVVPon9k-yAGmeSw3sUfMyvw
p513
aVVJjlRu2Hg2VgaN1P2GVdbA
p514
aVSCw9iirijegjhSfK26ZheQ
p515
aVeeRhnURn8ebE84S1xymc7A
p516
aV9VedeYzgqzq7MXXOWhbQcg
p517
aV5T8SdBwiH0jdwatUJ7KFUg
p518
aVOMB8Y_DOaB21vCXa-cruwg
p519
aVr6usm4GcaZbuB1iIbkJzSg
p520
aVinEHrQz45dQ_bRCW7HxgQw
p521
aVfaoGu7ngJ2t4I9DO5cxG_w
p522
aVeTeQp28_mMoImh9c4l2xxA
p523
aV1Gfn4nlqPEIvRX4cnctJlg
p524
aVPlQSyQNujQkd-ewRLZye_Q
p525
aVaERWRgfZJGSuPoCdhCRUoQ
p526
aVQ2e6q3_5DbF10ZKJCPEuOg
p527
aVtgxgeEvYUA_Gq8Ekc5X1FA
p528
aVZbWP0L2Ni_icKOJboC4SbA
p529
aVj22WZq4GjIhdp1cyGNhJrw
p530
aVkygBLEEZ7lqLi6CnM7gLyw
p531
aVE1zOJdKblkxFEfBGtX-hUw
p532
aVZ7nr-LLKaPG7bwKuk1PWVQ
p533
aVuePTLkka-CXvuoIk1d1Ucw
p534
aVoPD_t6BVpfhvu1-TS4FNzA
p535
aVBbWSGazo6_fUCKxNLJ4Z2Q
p536
aVFHaG51Fyfj8xq4CNsixWwQ
p537
aVgn3Y0mWduWrvT1hvu7fv4A
p538
aVpzHB2lJov4XgmfGgkh6N3w
p539
aVcAVLTaT4C5Zdz9lzTVYULQ
p540
aVBq-fS1NXfBJiaBfLB2vwEA
p541
aVaPQuGzqs4D8my3K0vXjb8Q
p542
aVAGHesuIAE2hJ4yPGZTzO0g
p543
aVq6hiZCOlvZ-JWY5alt4aiw
p544
aVNUeLSLukiPPCSK6EVdUo_Q
p545
aVrtrh46NJfksxR4TgljYg9w
p546
aV52hYzmoL4yUFyc9Ct1Zukg
p547
aV94N07GeXPUyC8baIz0l3UA
p548
aV2Qo8EXnxxfTtUWIqPPih6g
p549
aVDrKQzBFAvxhyjLgbPSW2Qw
p550
aVv6giEKBrh7uLR3npuqda9Q
p551
aVDH3X4Qj14nIsdeHMFf4xSw
p552
aVwZtfgvBJ7VihuRyq9Nqepw
p553
aVSwqhvXTAVUrGMxQBlyn8vQ
p554
aV8phGuOZ0NIfeJiTX-ZDZLA
p555
aVdAcYRfvKOVw94_U4gyz8cw
p556
aVTiftBBMFaQIMK-vJaRbZgw
p557
aVXBHJCDzNh--mBhJkzyM_iA
p558
aV_YNKf7vrI08r2eI0tM6zqw
p559
aVxUhW65cmXuAjIaVVpZHpTw
p560
aVHHij7LRNfzWru9TKEIsWgw
p561
aV3Fvga8TuSEOdsN_xYQZR3g
p562
aV8L1p_zlmAB_uWyaW0QTaCg
p563
aVg0LFQoGn9TNDpKlFjmFWwQ
p564
aVu3xXsUp-01Tw6IF5eqHbbA
p565
aVTFD4dqa9BXvDbtbDx8JwuQ
p566
aVE1FiD1I3K7YEVRd00EkPsw
p567
aVBSI42r_Q2NmDeYU-rf12nA
p568
aVDzTMG-LBSfMeFsVdkzoKVg
p569
aVKMGF6KAnPRoOTFVXBy9jtQ
p570
aVPFtbOIt89VdJB6OLLNaEGw
p571
aVUbLmrkrIga-o2v1IS8mLHA
p572
aVM35ddM0p0VtAb-n3DZtoQQ
p573
aVm6PdLs4FnQn4MHFd7i_wsg
p574
aVrp82QG3ewXv0XCeXqT2ojA
p575
aVQ9n39MgkWbvf6ohzQCDO7Q
p576
aV77NzO7uhl59ZK-EYoi7n9g
p577
aVat9rwt_tidIDDHfFeLFF8w
p578
aVhtatikeBPPYOmbiPP0lXbw
p579
aVxQWD-K9GJKt25oFV0VXcSQ
p580
aVA69Q7QPRXs4rvbbpuDsm6g
p581
aVO_mvwBwSz8KzZkozRPywdA
p582
aVpMlK6piV8k45lhMTRomV5g
p583
aVgOsppOXgtB8S7Cmsqc8Skg
p584
aVi5FE5KHUWxsTgaOkmnyBnw
p585
aVvyfsQo-estP8EfiIFMsL6g
p586
aVNOBR1-mzfrvDJJEMRxc8KA
p587
aVn7vjwXPlfG9kmC89IhFiWw
p588
aVAufULLEHyH35-1Px95f97Q
p589
aVErsBXW-E-mWNjMc62TPQNw
p590
aVJM71F4zQwVDDSzqSkiVUhA
p591
aVRiHqU26mvzK1kRhg5KfzWw
p592
aVctfrZmE6YZ9veDGcQSbfuw
p593
aVp55Kb76HHeATutpPN68sdg
p594
aVxbSPOPOq57wxCxzg3eJG7A
p595
aVKLOs8RAHj14iuM70dMfUGQ
p596
aV6uM5lx0DCX4ctQlebtxraw
p597
aVitXz3aLcWHzw5ccZXpXHjw
p598
aVHc6agWZ9jGCxsPAqQwlf2w
p599
aVTK_fTr_VHwS2Ec2ZxUUKLQ
p600
aV1-DcXw8_o_oibpBlnXgdEg
p601
aVz39ulrgtvEMB2oeokx0-mw
p602
aVxpMHUEbvHet50XDg98fJOQ
p603
aVYiuRV_Xy8lpLndMOWi0uAQ
p604
aVlL0oNTVtsFhkGwILqmiYoQ
p605
aVwLt28qh-46LFhKOeByWZ0w
p606
aVR9FFFqYOUmvWjaHqODfzyw
p607
aVp4Jg_rO_AsCWZGMd_w8xjw
p608
aVyyvwMoMifs1p1cp9B68XIQ
p609
aVMTVsyoL3dajP7VS4iuLP4Q
p610
aVpJppmQyW74ejj8xCa2SHuA
p611
aV5MvIg39L6FmBrGZG5C2jjA
p612
aVhzaqnSxfRYv_Wbp6CMKtQw
p613
aVVFTd1QaNvVVucagkq8ZJAw
p614
aV0QwV8PJk9PJDFaMNw1Fcsw
p615
aVlGrDfsaWl9IDUcEeUWyn6A
p616
aVyTAOBwi29nTPnhu9wH75Cw
p617
aV6pC5j-hfP4xLZB2W0Wi1vg
p618
aVJcJwC-NxaVJ6xUTYpC9AMw
p619
aV8nAj60xsBjcHXLLSs7cPqw
p620
aV7WotaQG7M4JJqaqqDraaMQ
p621
aVwiE8owjhxXYpOxCcYKhbiA
p622
aVwNTZMYPQRZAx645BuhdTyQ
p623
aVsAA1n6_M6qllKlT-XuWkQA
p624
aV7u4J3l42DPIK6ghUu7fs5A
p625
aVqnnieCU8EXZyojWuKg1iVQ
p626
aV5h_P5sVbGxtw9ldH4sWZkw
p627
aVHsKPpfcATrQ5Bb0ab9VQNg
p628
aV3uPesra2sEBRrO8kDwO1qA
p629
aVHm6495EXdwjKqhzvhLgsyg
p630
aV5Szwd1CSepRXwAFH12nPzQ
p631
aVGoTkP8VOSk6rqGXS3uQ-bQ
p632
aV8S-UrKLKRsJhv6mfpCV7lQ
p633
aVWMA-mhjrNJVZSkMoBD5ZWA
p634
aV4ulkvNf-T_UVM-e4dd0lbw
p635
aV-T4sYhtArnj2XNj7xoEeiQ
p636
aVsU9pCk9IvfZtMd0AmrRhvg
p637
aVgcCs-oFd0veNsb10nX_fmA
p638
aVgt03nuYv2BJxuq20d7OGkw
p639
aVZH6rqgDyfVEb5yZxRD63-A
p640
aVZR232ZiiDJ3j3dCyMygA2w
p641
aVJReQtKy2yfrwPXl8efFBKA
p642
aVd54DWwCsmiZLQ3rXfTQldw
p643
aVuBrI2sD8oEHegtiz6g3k2A
p644
aVKWBbXYiNvwGjEFrhitRwPw
p645
aVsl44rRFiL-my03C0oywKmA
p646
aVAonCa5s2nOfNfZYecxgIDA
p647
aVHBFtzjRarXxDH8xZRSNsPA
p648
aVDVANCbItlJLt3Eqi7CaciQ
p649
aV-EAx_2wa-h4YyNzYyWFfVg
p650
aVnb2wZQ-DL7Bn72N_h9NMXw
p651
aVqjBt7pr7CcQsX7040RYYsA
p652
aVn4QTIJq0uXVcEls_No9DyQ
p653
aV__AzEBHrVp19B5RQUUg0vQ
p654
aVzch7L6wKTPUQI2sVMxUqcg
p655
aVkXuA2ffm0Uw46U3O0mcmtQ
p656
aVzi0kxtr5gq0Flg7jYdIlMA
p657
aVUkYIuhD8kw2y-h1BHNo44A
p658
aVoWEdmTYl13VHh1A_Mkhh2g
p659
aVY-9yQMPlnRWgD40xAHl1KA
p660
aVBJUXMLNyQKjQq57BDWy1Ow
p661
aVqFHOh1DMqJ2Zb_pvqR1Muw
p662
aVPO8XNxGUizzzKGHmn24fQQ
p663
aVLdjjwHSHCeqSvm7a73wmXA
p664
aV46ASXV3uv_x2QAWe6ocplQ
p665
aVDzVKlwlnqwSSiGGzLmAp_g
p666
aVztpTP8QJIR3wqj-xCw6Mow
p667
aV3Np7xOb7SFhgAUbdtvxOyA
p668
aVmxDC5k-GFhdqZLttPM1dZg
p669
aVAzV-8kuqyXJqRc-MNOmOlw
p670
aVZs5TpdcmCAFs3SKsftnX6Q
p671
aVKTO2pnfnbqclrNm0HqoyOQ
p672
aVN9yGtVv_uvWmxt9XY7zPUg
p673
aVDB0OfzpdQQw-Q-8udINCSQ
p674
aVgzvltlt2n97tZMnEXihbBg
p675
aVHKHAr2pPrN8rVzUdYXxVZA
p676
aVXpD6HNw4LoGDBCGkMqxrnw
p677
aVWgnmE0dd3lB71lRP_OdyBw
p678
aVDDxueGylgwBGa7-hR2toZA
p679
aVszLodDvllHAwYqkUVopqHA
p680
aVYYz9sM0_98ksQJUeHs-SJw
p681
aVac-LWMXfGE0ZMChLhYqnnA
p682
aVtXxlJ-tDbFn-52sT8WOdSA
p683
aVTj8X3qpdjiJpFAEqWILPEg
p684
aVJTRxzA1AZ8Zfwj7FpH2CnA
p685
aVAixLPxra_4HirfchjPkiWA
p686
aV_hyY8DGw9kNpdXLVSn8OeA
p687
aVxOK3i0wgmkpGu54BuIcwQA
p688
aVqm24FjqzuhQqAWGm7VRSYA
p689
aVLCEAg894v5-08hx6av0p4A
p690
aV2YHVTrs6EY7Me9NwxiQVpQ
p691
aVBpmYi6K_0jXj0gO4_GmVHw
p692
aVfPHLPrymsyb6WSFFKoMrTQ
p693
aVF9T6m1YdRFreyKDufcyoOQ
p694
aVeib_gPmmdNMZ5LLZs18p8w
p695
aVkGgAARL2UmvCcTRfiscjug
p696
aVLmsezECOd8IqQUYjTzWNSg
p697
aVDVZf6SX19FVnzPyJeZ9-eg
p698
aVfd68FgmkzCi_Tud41ex2dQ
p699
aVrX_t4oJNwMTLMleZ7s4ztA
p700
aVwJuqi0qRDVOjSkyWhf4PIg
p701
aV1UJbOl-jKNIUjroeC4xWxg
p702
aVJ_uRQSKIxN0MCItOnJzfBA
p703
aVACLuEsNHV7lfq1O7CHuFaA
p704
aV63rmu8axehcaFxQ3TyIFkQ
p705
aVzhV2H02tC04MGbgch5sqNw
p706
aVDJEnhCkQlQ2E2z--aO9j0A
p707
aVRhb81Ivo0XQOXuE5-5JPQw
p708
aV0ypTVVwcyusnxx4Zbws_bg
p709
aVUyOtYjnavsr-Dtjo6Xy91g
p710
aVEFg-ew3x8j2XPJn4e5t45g
p711
aVIGkoathSlJmIOBDGo9vUZg
p712
aV4cI8eBbkYJ5vBaDSZ00RFA
p713
aVFRBXU5mAa9MCAXLCjBTi4g
p714
aVJ3wHuqConRziCBkqCxY4UA
p715
aVLw2ix3qoY7V15se33597Zg
p716
aVk0jwdPwmeR3QXHICqSVL-g
p717
aVHHbe1svajOb3FOXdoAoGeA
p718
aVeNrtdrGazNbdiQRmOr5EXw
p719
aVn9g51fYo-4mjkvu6wXLrcQ
p720
aV3AIZkvXQaThvVODrL8jEeA
p721
aVJ5ptmoQJiHzm-XqyNW5d-A
p722
aVgLkQlGtokKIyWyNG040JvA
p723
aVUS2OXYlR4EvFQyTSKSNMnQ
p724
aVECGa0INRH7Tr3qGDU8I60A
p725
aVygronrTGPlQHxUn8NCmaIw
p726
aVd8cenZMDAAUzEtfbIyfwrw
p727
aVwWSRhqRAez5TF6ZWR4od6g
p728
aVC8ZTiwa7qWoPSMIivTeSfw
p729
aVNgS8s99qQIiHOszKd-m87g
p730
aV71vvbcu0wgwu8VcJazSZZA
p731
aV9LZP7Ll7N9zkuWfA5DUAYw
p732
aVB6jSXFsQkKyoh9E2u2ynfg
p733
aVvEhOUPzqO4KJL2dF32I8Qg
p734
aVSNBJb9xiaRJ0ohHhugwn_g
p735
aVx73VgCg2HVjo_SUDBQ4plg
p736
aV8W6N_Vj1trKUvtPya9h1xw
p737
aVSbM1m5nejHDD1pJePsar9g
p738
aVN50csIgIytyVZ8VUsHxZug
p739
aVu6sai1T3fSXsyF-fnMToPQ
p740
aVzQ_FpDX-GDPuai4GOldCJQ
p741
aVbLjKUuAvdx7wbp6arixUfg
p742
aVwF7_-zf7R8Rri7Kq-a0tlw
p743
aVLkP6rtLtC26GrKtgR-COhQ
p744
aV_1mBBkphbaKO3EQHnpBQJA
p745
aVnN6rr9Z6DRYg2J4mXagWZA
p746
aVPNcKplCkU7150DmX0aDylA
p747
aVvrU_kYfmp0Mmh2S5-FY-sg
p748
aV2iqG5g2iP83GvtBiqMRQoA
p749
aV_2TQOwIQMaWPjjY0bZxg8g
p750
aV_HcZLN9uoS8urIDGyzew8g
p751
aVpXhkHt7mAqhrKLebB6Um8g
p752
aVmAuBHENS_DeFCQqrJC_UxA
p753
aVqbiZyhbuhTMENzs4XH-gzg
p754
aV0ZY6rM7Fm9AbHfG40HCLfw
p755
aVIPcbHkP9eB20ur2oKsLxlw
p756
aV-Ll2lk5MuVsJIBSBBnM3Tg
p757
aVTF0wvOmYBOCRYInIlDnulg
p758
aVjlpbR7IurKHCnSrGxELVlg
p759
aVh2j2B7Jif_0lW0H6FgqGow
p760
aVCLz9JgzYmyGNP5p5EERRdg
p761
aVuCWHw0AcKwTjvxDl8RpHKQ
p762
aVWYWjFF01WzwQNL_whGEkKQ
p763
aVIrmsjAqxw7UgZfA9imDfEA
p764
aV3P9Wnn0Z9TSe08bA8IIh_A
p765
aVN5JPIH_0fUge9suPoyp-9A
p766
aVOhqXsFeqCVVnxbWuZlnGvg
p767
aVoPG5VgtbV0DaDqYjBIgyXw
p768
aVJ3NDKW-yjdDXkboig0hAHw
p769
aVWmAyExqSWoiYZ5XEqpk_Uw
p770
aVm79wRpkxwlxqCwd5e37vWw
p771
aVRpC1jwOttGJcM5TIgscMTQ
p772
aVmhFF84q9CZbmb5PqKzfGww
p773
aVJqaFfOsOFM_nx-dpKnFp8A
p774
aV_iXng1V68InwgFaiy-50eg
p775
aVtlSSQwfHYJany7wPoTH46A
p776
aVFBheGN7IBrFkGSNdv3cbGQ
p777
aV7m4-lgi0etB6KvIQ2RBBCw
p778
aV9BApDAgV8POMQ6VffTz3aA
p779
aVy9NvtHUzizvWFYSZ5FV5_g
p780
aV2VfhMrTJ9bZ0O4PZmRmxKA
p781
aV5pAk-cfZQy2CuhdZrqYCEg
p782
aVTMsX0mrf_wQaxcZXKgIh5g
p783
aVyueiAo4E5vtAqWaqSyVo4g
p784
aVC9tCsaYVHdMcQeACECXDCA
p785
aVbxEeVkcFEkaUn4cfgDGS-A
p786
aVhQvmGmxWOhoVB7hbDRQb0g
p787
aV-2pjspSYwR_0mtJmQcxzQw
p788
aVkCfwfPSOiC59qMu5EkOggA
p789
aVWnpi3iUqULVG8GG3fdXWMQ
p790
aVu2mMLkTFO4qEEL9QFwUjRg
p791
aVYD2trEiFhj_ehUNCpFtfsA
p792
aVGoqZDWwCvsgwiJRZJ27CiQ
p793
aV-heP_e4m3mEiI75VozrGwA
p794
aVeFuJA-G5a_j4j3qB9p2UCQ
p795
aVmFOZOsPQOacWIMVSyXbEbg
p796
aVwgVQ-y7Q7ymQ25VVIgZEmw
p797
aVqK6_sysqplVrEkq-MxkpTw
p798
aVA4DM2Piz-hXs-o9X2dSQZw
p799
aVGf-2KwbHuIzp2YdZXvC3sQ
p800
aVYcmbgKpGDhMu4w2AWuIgWA
p801
aV2XCsVpAMsGUykrM-BBFEXA
p802
aVqVePixO2kuK0Dr03upCWFg
p803
aV-ANkfLbDf8aiBQ7vywIL6w
p804
aVu2lanPBcORxbwJzsEbAExg
p805
aVHQJ_2pzqz9DuPHNpTOmrWQ
p806
aVD9CIW04wrcQzZNdCEoASAg
p807
aVLNvw5VDA9b2PXkD-zn3-OQ
p808
aVNu0oythh2v7FSfJb30d12g
p809
aVAq_fbQ4aMVvTCiskOz876Q
p810
aVA0puRx8MGQsnk8uXtpw4hg
p811
aVTLj3XaclA7V4ldJ5yNP-9Q
p812
aV0XRFyY8-dxmrDheFPpe8Sg
p813
aV8E0DGec8LNn6oDmPHmj-mg
p814
aVLQWlBt00QZrvn7McdS_Z_g
p815
aVy8ZCNq8HSGDSx7Vm-NYEOw
p816
aV270isWtFFYFtlBR5RZUjtw
p817
aVNGaa4JBPXl8GzdDWWbxb7Q
p818
aVfMzU7cCSgv44IKN5Crs1mQ
p819
aV3utEqyNzFcxH8E8pm7ByPA
p820
aV7SVxpEnu760QstKGa3x2Mw
p821
aVzRiz9k2brNAW-AgM_TLk6Q
p822
aVLRBeqLo1FhG_9-Wtm1irGw
p823
aVB4KTa9To2jrqr-NK7c7kwA
p824
aVfczQCSmaWF78toLEmb0Zsw
p825
aVZNpAVHTehFYp0rObGT4teQ
p826
aV_VtoKtLvDAjWttQ9wVD5kw
p827
aVUS2UWum3MaQLtFGiONNIvA
p828
aV1F8RulRCjaQTN61TX9Hd7A
p829
aV6hRKotVFPYL7Ci0hipN9Eg
p830
aV1krwpAcRTPy6lrjAGQQ1lg
p831
aVrvY6h_FqTuB7YCu_TrWRkQ
p832
aVUUfnmyEBi60Qw9tjuQ-1sQ
p833
aVNhXOaROBjlU-IuQrmWrQYQ
p834
aVWeX6UjZSTeMfFBQGDfu1jw
p835
aVyPy13LY2idzQ_VpoavbKuw
p836
aVRTwuP9OtmJvMm91wuzxGSQ
p837
aVAGOmxrO-YUnltljd0SI08g
p838
aVq9XgOylNsSbqZqF_SO3-OQ
p839
aVXKilChOBIMq0hp2kF8KwHw
p840
aVaYpO4xX9yWRGfF09Co4SXw
p841
aVbnVjfyPIsh1dQ8iC1zXNkw
p842
aV44R1syuo0et8sLtRnCojkw
p843
aV6o0NNvPxXHvNSs3NT0WkJQ
p844
aV8N6y30aGVwtIYFraswbJeA
p845
aVLdrGYCwF8-mc272RdBQSaw
p846
aVD1HMFu5IMz2n49N8ga-IVw
p847
aVo_LCYay4uo5N4eq3U5pbrQ
p848
aV1cR5-LZcSYcACxhGe3DEVA
p849
aVyoQAZWDdBW3kQH7geFEoWA
p850
aVBYFWt4p_KLgINKvSqpEojg
p851
aVy2zwsT-arc0H2rR5yKR2XQ
p852
aV6wveyznYgxA0sPKEfe4wOQ
p853
aVdwrLwOylx8KvPers5hAahg
p854
aVMlcL_KuqYyvyo3U00MAVwA
p855
aV4NX8crn5WLSVjWH1fhLS3A
p856
aVnWry09tpTwD9peA3ERhMJQ
p857
aV0Ypfll3kJiL5OrxBBat_Qw
p858
aVnFO4MFFynxIiO1mOY9W8sQ
p859
aVsjG0UdiJaEwin_pvWuyxVg
p860
aVBSTOKq5iEIuwzbe-qNzbkQ
p861
aVVLWiX2gzkfDwNAR3fwjtlA
p862
aVh2lZY6mojN2ENQdU9qazGA
p863
aVh_IuHfAeOzE8KT5FT04PVA
p864
aVZWi5gzaMROxG3oAKikHFEg
p865
aVAX5N-yKV0w-lVNTHyb9AXg
p866
aVfGMaltkx1S55k3GpeLpTyQ
p867
aV08vW8jwsZcNXc9k1_H7H4Q
p868
aV2z9yZ6yWiRlZfF_Lshc6Zg
p869
aVzunSYtFT1h20xnQH_mTsZw
p870
aVCJCvh6WSLd4Rx-VnQGsSuw
p871
aVpSOpnpuqHaT0gM9aizQsmw
p872
aV5YySKNsPmTeG69nT-dS6Hg
p873
aV0dTkjUHgc6OEsSk8JnRzsw
p874
aVS8ZY1HEDoECqKrIUY34JOg
p875
aVeuadoc7gbju3zFjB37x3Cw
p876
aVkJ44AlQeQIaqbtoGHAQeNQ
p877
aVmTmHkMOdv-VQdE8VCJ8GlQ
p878
aVnQVJ_9f7xVtlozrFu4xmqg
p879
aV0bNXP9quoJEgyVZu9ipGgQ
p880
aV3JtdBvnY6Wzp22gt5zFwDg
p881
aV1VyqxZ4LawfHiRghQryVWw
p882
aVFEDX7jt7NmAusbDUTXdArQ
p883
aV3WsDt1vFkLyCQqb_qUtFVw
p884
aVi2u6i8HWiVvMjcG5nwTAEA
p885
aV470dZswdTHz5aaGPvIYNpg
p886
aV19lLsmz8dx97X1APkVNlMQ
p887
aVJT5kM6wRwh7cNt8IAuX_sw
p888
aVcp9eULl_Nn8Mo5hC9obSOQ
p889
aVcbc2PFuBzBAg7TXRPgXwtg
p890
aVxRf8sUczJqHgfgA_Dns9gQ
p891
aV25uBXnNZgHDaovC1VTENrQ
p892
aVZ55xeJuUqA20PL2oY4nMcA
p893
aV_E9-6-AYmN0V-l6HsQk7hQ
p894
aV0qIsBt4EzBDCKrIviV55Ew
p895
aVlLZfboZB3B0LquJNR6GmkA
p896
aVca_Q9OGfyjwOnfvXqmhdIg
p897
aVGrIpU3rvhW1Ydi5DlKQQjQ
p898
aVd42T37_3iMNRrIbi1gq2_Q
p899
aVf5gM-S0atZaG7tsW1pi2NA
p900
aVv1se4CVd74gBqTc0iMcK0A
p901
aVTQ5eVGOFr_qB5_BbEd3Sow
p902
aV_pV81WTJRyppkqj9B7GF2w
p903
aVr7V9Nhes-Eg-lH0cqfpFFw
p904
aV8ma1-FGZD63wjmrxyeajUg
p905
aVwhkzCRr6zbjjA3O0tVEKow
p906
aV8N481iGgsUYA1-TtESOntw
p907
aV2nM6phE0Emudtw-feBLWtg
p908
aVenVSF2CIt_vMmsq665LSSQ
p909
aVsdH7B1S-PSngGY5Hi44OqQ
p910
aVDPwh-CgEIleGiZIe0Wqo6g
p911
aVZTC-ln1GjUB44g7wtfJVHw
p912
aVciIdgFaC_gSBHtkU2m7ETQ
p913
aV97rWQ31yB_JnjEDIxUI3Og
p914
aVcAsYfm9UkDFDjPRLR5zfWg
p915
aVuF4lwuRTFvh-qrbIDVW32g
p916
aVPMNbT3Y8KDt7E979AJMyng
p917
aVBpIXi537n43BFg8Q64a-3A
p918
aVx6HA_v9WhLKMAsRm1n12sA
p919
aVLJ3nfy4DLLfLy6wA8-64Qg
p920
aVIg7yd58fPKZYFhH2bDYDQQ
p921
aVx8Xx1-_hbjkuH8xXV-BrwA
p922
aV7TRprrHXkVpjhE5WFggkWg
p923
aV4qe2MoR7r_UyaDrGe-20AQ
p924
aV2m3lE8p8T2nFRDxIUaRXew
p925
aVgxoqD1Y9lRs2CFZMUvxbxw
p926
aVCEfUkE9nqGsJeIpFgAv1yw
p927
aVDzY5lpsa9tBcJtoRbzCEPQ
p928
aVAaBwzccT3c7vAZUQS4qZeA
p929
aV0qfftO54idymAc-6LPVTbA
p930
aVVkOKJOX1gqarNssLxg9LOQ
p931
aVJ92aUGPKStpBIwx__yncfA
p932
aV-MZOtQxxYX9CljlnHbqWpA
p933
aVbZFRqP7s0Vszxeu8_IwYow
p934
aVsnd45oedwXxF9tsHUX_6dg
p935
aV8jEK8gxHYg9w6sINujO0MQ
p936
aV3AWY6ilx4acBR08xNJnWew
p937
aV8JC-Yb3UDUv2FUl5ym1nVg
p938
aV8UBBkdxYDCnSsOVc1YOEcg
p939
aVqu3uqXJvrQJSqz1XHcN0zw
p940
aVhMMVN5kSxReODk2ofxic7Q
p941
aVCReqkya7EKcp5G_PIBgQrg
p942
aVHW-cL93tvU7qng1sZueKWw
p943
aVDg560aU9ymlloG-TOPx0Vg
p944
aVZmSKVX7q0GVXxmVFUcqGDQ
p945
aVkYi1-z_eErTLozHG9gBYGw
p946
aVehfZRCVBEFYQzAYx7NLOHw
p947
aVbvQw4Bp68zR7r_-aLmgq9g
p948
aVOw2FFWLAHDIM3Lp3q2vwBQ
p949
aV2hK0GUNB76HeH3nOUUMesw
p950
aVZVyQudI56A_5hg-2B_wjbQ
p951
aVuE7jv7qItkIMCCItQRSIbQ
p952
aVyhByTmJlswtYvSq9qKrskQ
p953
aVLTWY2Ee-SYu8ItVOebD3CQ
p954
aVf0_QSzyQUvuuWpmJCVv_WA
p955
aV6nK8JYOfMJBZ2lpN2S0-cQ
p956
aVSeUINpGxGUr9pd7gWACU4A
p957
aVfrLdxQKCtofva9b0dA8Eqg
p958
aVqiEqWWU2CMpOHr1tCIdIVg
p959
aVuHq9T4xEvdldiRI5k1WidQ
p960
aV_A_2A-bjADJTKBoWd_B5qg
p961
aVpkXq4ZbKLRlGlMiEJzm0Sg
p962
aVk0iLX341x3mm9golh9wejQ
p963
aVu7cUruVV6_B7bisu-SYIKQ
p964
aV7zpDhrRZRTGCkAh3SHbEww
p965
aV50ofEHGBhs1HGQYvCRnFOQ
p966
aVxBvqbRdQlIJcw1DT5Hz_kQ
p967
aVGO11d7wyai9DVtHGV52OcQ
p968
aVqbVAB3Xxxtc_OzsDNCmUBg
p969
aVItqL2488GCmuFcKxHDF7Nw
p970
aVDFr0LYHHTokLFCSniznohQ
p971
aVuQgfF-fHN4vhH5sx2W4jaQ
p972
aVNSg7k2UFt_HqM2mvsw-n0w
p973
aVhMhGD_Z6AkG9jC4URiHByA
p974
aV5yBkoRI9DSKH9aMV3Vadpw
p975
aVli148FKNnjlwmC5Mq-qFXg
p976
aVO2Sepw53kNHuf1VqJ85cLg
p977
aV1cuKOGuLDfD240LInAlbwA
p978
aVDFlMzHxJOQ2yggfYqnORoA
p979
aVdS02pxg9FMgcJoQEohsMCA
p980
aVEcFydWvO9D9jCBUgLSMzKA
p981
aVegdj4-wXAzYzT5bmTAHYqQ
p982
aVVESaDn1MpEIAC7C-SvGO2w
p983
aV7z6uuJ3fuaurG4dmdGidJw
p984
aVMNOW-LkZx_Ns7AdTyFIYYA
p985
aVnUHHk3cmr4ia7u36YMZTtw
p986
aVAm0M-nmJZ9fIU-NBFCzSSQ
p987
aVHv-U6M-gVXf8jqzgWbYLXA
p988
aVPmLa7Pu9Ba32fhvCOLOr5A
p989
aVC6IOtaaYdLIT5fWd7ZYIuA
p990
aVToNSCfbIbW0zKKZUl4cpHA
p991
aVAXHAksv-Y84Ww5uVw8RdHA
p992
aV4J4J72Xr67GJYxxGt8rHwA
p993
aVeg0AARmcCCsnyS1WtokWkg
p994
aVEgXJoFdQlcokmIiqgMXd1w
p995
aV4CJGQajGdc8JwFneADetcQ
p996
aV6UUlGUc_VjcFslmRle1vPg
p997
aV-egXQfAzhRvq3BAgug10fA
p998
aVBqdywQzVmBdjymq7BfdnmA
p999
aVRPn0Avnq-1syMwEYz7kPrQ
p1000
aVGTxtOC-bNmfnBrCfRUC9Mg
p1001
aVGMSSg-Ts1XfWvy5kGHTZlw
p1002
aV6cZuyvWcccCrJeqWF5WPoA
p1003
aV3x175sXzgadiYMlLErUMoA
p1004
aVi1iaLhsO26OefrP-6Y41WA
p1005
aVHdb6HUDha7XG9X5NnmitgQ
p1006
aVqYGB7R1vcO2rDJOeJNDfXQ
p1007
aVqaBXZe4O96SDjnxyl6xmuw
p1008
aV2t9wSXQ3Luadi_eW7O6Tag
p1009
aVS3DqpJzGe0iZtDVdgrLRlw
p1010
aV7h7IlYzn2j2b7AH-801EtQ
p1011
aVec5NsXiWB0C7yeoxVlhxKQ
p1012
aVKQonJ09FfP7SA-ChNDgXdg
p1013
aVyfQwWLYtqwHKiky1hiTBew
p1014
aVlmDxv2cNKO_bKrD25-jAGg
p1015
aVxm_DzmDnhtNyNnnxhSDncw
p1016
aVmDqWHJG-NQq9ycwV07wjkg
p1017
aV3OxcNCuHxHUSEToYXo4LIA
p1018
aVAKqC8waFcFS7iYhL-02pgw
p1019
aVuo5LWFJTOsla9j4a5fMiig
p1020
aVVSRmWUjNkSSeV7PLBOuh1A
p1021
aVltYDFHSVSc_ztIiJrndmeQ
p1022
aVgGFthU9GCGkcSLNo1UyNDQ
p1023
aVpqlRaKvhnyrNoxT8yeadWg
p1024
aV3gBhA4bNoPWQYeONL5NPQQ
p1025
aV6SxnRYFR3GUzGREKSttxJg
p1026
aVTl7FatOzF33ciAcA1GdTcQ
p1027
aVPponzfdq5fYm5Za7Oj1BAw
p1028
aVxt8iR1kTQKxbBc6tvYZxqg
p1029
aVru8p3RTlk8f9LB_3zLXURQ
p1030
aVWZgoM8UuzxjZf1AaWx3qZQ
p1031
aV086zTSYPSTZs0220Teh5vA
p1032
aVGUrPmYze-oF6NFDJusiSNw
p1033
aVeqi3jBRRvCGQ6zpXkzlJYw
p1034
aVq2M1kDqxwSlQxKMyPX7Ttw
p1035
aVPrsk7SiPZNfgcPyygOdGHg
p1036
aV49r9640dX3NPnq3bQiah2A
p1037
aVXBdkBQD5GkyCFwLnEIhEJA
p1038
aVdPcoYTCV53X9Wy-n2lxWhg
p1039
aVs74Gi6-mS5J5WnwGHKORfg
p1040
aVT0vVdZebDAsYN-UttJKJow
p1041
aVmRncQJkKWVALsflOVvO2kg
p1042
aVChN9DVAAoNHUY6JljBcPqg
p1043
aVeBUE5o2msLFOjJvFLm17Ig
p1044
aVfk9sG-0ayVV7dGsar3vy0g
p1045
aViDs0mr1LAb7m3K2L-KcAAA
p1046
aV0U9fwlPYRV5cy9G9mb6Q6A
p1047
aVzI0j9SN1aYoQSPOlL4E4rA
p1048
aVQO3DkQtPKgZu6G4MXPmnYQ
p1049
aVf7Ez84QWvsJPXwVpG9-AjQ
p1050
aVFEkrEE6gKYudG4WC2gXPVw
p1051
aVeDv4o8Pg3dNLZwX5prO1aA
p1052
aVsaiZmxzBIowJbMgPBW1Now
p1053
aVcJmDizVwKXChEXRrNaCUDQ
p1054
aVVQn4csaGtX0mhr-VaZzREg
p1055
aVCQVYCo4OP_TbnZ3DFMi2Kw
p1056
aVolT2J66OB2HFlRymvqkxZA
p1057
aVQ8KFcuPwUh2v6BMTyFFyBw
p1058
aVGiMKnA1NjkMgLYipd-qNSQ
p1059
aVDfxlZ3t6CxbVyKMA-JUSmA
p1060
aVIWBD0ipfmAZVKYaUUArIoA
p1061
aVRnrVGMWolNXYWzgHg1hyVg
p1062
aVaYsjSXX3m6UQUPcVk0yiBw
p1063
aVUTGqubcmDv1cNe5-k8-OeA
p1064
aV10nYcaEv8zxiPumJECLsDg
p1065
aVgBID8jIwsQIE5W_Zr0Vhjg
p1066
aV2W2kRe_ewEBz_jCGmfdMIw
p1067
aVyj4lNvmxAt42NvBCxB3WTw
p1068
aVE-E50dUzNkeCGNLqXQ4PpQ
p1069
aVLbgQK5B_5IkN77FgRJHhrg
p1070
aV_3f44aWnibPGTpmiiNLxQw
p1071
aV9zW8DTJuCNAN-Y2XqG-xZA
p1072
aVvhxh6yKNWA5IJntxjREqMg
p1073
aVit23EnutJ6fOjeYQBDKJug
p1074
aVd1w5vqi4Dz-Gc-vFefpOTQ
p1075
aVFaX9JLeacAteTlNKgeGNRw
p1076
aVcYJyOG1ea1gYhsR_xWUNvg
p1077
aVUf_PrKEpYGWBsL81lY6NSA
p1078
aVKqaH0TMidJb6AMAeLXmu4A
p1079
aVj5f7ERREO65Qvcrs7KQTwQ
p1080
aV0wUw3vODMYJ9IM58ND5gAA
p1081
aVl68a-NyKoVJeoMVGk0PMTw
p1082
aV4mtCpNizYNdXuJk5IpP5JA
p1083
aVr7KlsQ0TYCYCBH1s-b2wnQ
p1084
aVg3dUh9lpWTVIKxzNmkFp4w
p1085
aVUZysWMlFjuMWGTC2qYmIZw
p1086
aV0IAOkW3KD1Dsx2hnwb0CSA
p1087
aVu00EOkApqyRP9YLlI90TKA
p1088
aVi2KwDZV-Bs_BrZjGaBn4YA
p1089
aVjVQoCoLm8JHqbQI5jrB0LA
p1090
aVk5zGEHC3C7AC6gxIGOdSmw
p1091
aVxHAlPHFluxyPWnH95KSJLA
p1092
aVDoa1UjBxGVTmcvTxjEDHUQ
p1093
aVkl0zgp60RM09pySxA5NubA
p1094
aV1XWzXgFvcu5pU2wj1ONQ_Q
p1095
aVw7YkAgJ2t5Q9zkfq58tpJg
p1096
aVAP6udBIStvWLY0T5rS_24A
p1097
aVwNqwKWaRjClmcKsoJJRFow
p1098
aVq7Zn9s5wXAjhhSJMf7GiVg
p1099
aVV0WOxlZrIhBjcvlpszAgXg
p1100
aV-UP82TPPpG_NpcsbDbBlSw
p1101
aVG_PCzMHcOLoMyyEsxW1DFQ
p1102
aV1I3vCdFcsSW3KAppt2sXoQ
p1103
aVZuQ87LQYWRw3AHj-jEiQ1Q
p1104
aVj95HloXgQiHWDdkkHwytlQ
p1105
aV558AjR8esTKOKNAUvwlhxw
p1106
aV1tQZrkIweF1iv2RrU_dxJg
p1107
aVmKBqGkfk7NqwUoA9P77Qig
p1108
aV687b_5uUBlitPUac9T_u2g
p1109
aV5-ZF673BNm9aY6VQQtc97g
p1110
aVtQV5mTcDx5r-3JS4BpByaA
p1111
aVIHUXwBK3pjsCxzuS_g9jCw
p1112
aVZZ43etAB2n_T53YBYtf8Dw
p1113
aViJvrW5HPprsTlsABAdYeGQ
p1114
aVXPGCWhBzJM0bQT-f6wzfRQ
p1115
aVz9JL8bX2OkDrigPqXpyERg
p1116
aVwwdRyRFoB-zBjXmJ5ClKrg
p1117
aV50EcfFlkuvc_T6kf9KbZFA
p1118
aVVDHUtEnPh54OJiYow91d3A
p1119
aVlsYq1eKzU0X77LN6PfH1Ng
p1120
aVHGWIasjq8h6GGNPRXhn3cw
p1121
aVsygEVJoT1zWGgv_OjTnGbA
p1122
aV-B32HlBjDRafJpD_eW5pxw
p1123
aVIg-WArvZ39LcRvH0kidHNg
p1124
aVr8xfTpifZ7gP5Cd5CSQaIQ
p1125
aVVVvmWzmjmkasz0AqwQHSEg
p1126
aVxAKoiSjFt_k9tWh9RIsj3g
p1127
aVaTi0NVrcPJWbN6jAsJVcAw
p1128
aVRoSIhgbHiQFzsgavFFaaeQ
p1129
aVZnOdDbndR0b5p6eF-014vA
p1130
aVhU0Vgl_hkJaWM5uUq_9W-g
p1131
aVh2xSlFE8yfPn4DMD-3hbxg
p1132
aV7_Tx5bj6Ylf90j328qH44A
p1133
aVQNlNjDHxj1uonlkxuaJVOg
p1134
aVToJ8ZZITRnU2NoBTP80nHw
p1135
aVQmXXmqX7Fdszdd3qDq3-Jw
p1136
aVd1B7lZdPgF1M61E1zROjqQ
p1137
aVweYT-xJwz8o7mLNWIhD6HA
p1138
aVfwsJGulnozT2U6FefsLiFw
p1139
aVKHxnsmfpt_Oo_0iqfToZuA
p1140
aVr0wUI4JVDBw9WyRimmyVMg
p1141
aVagBpuKvBxrgTUTOydISZRg
p1142
aVWvCV79VfjM3rLWqH-k_Lfg
p1143
aVaXwa1hVyCgYn3PUlrkadyA
p1144
aVNkNs-f6BzQ2f2m2hJAAc0A
p1145
aVfIRFQ3cYna9UK3CwFmYKfw
p1146
aVEN7M-RJPfzbUxP7dtKvA-Q
p1147
aVpjgE1d3csesAkgn6rQI_RQ
p1148
aVd1iH2EPxYMQLbKHN03Y7XQ
p1149
aVgSXgEuv2wf4QBwzu8ySbig
p1150
aVIENeTl3e9W4diDMwW72gfA
p1151
aVa56VaJVGI00zaJVG2bF60w
p1152
aVAZuSSh8xMwLtoapGa02WZQ
p1153
aV6AUX1beuHGiaT-EvD_iL7Q
p1154
aVg9Q7pHMQJEctwBCi3umr8w
p1155
aVWP8A4MKs_LdRZ3TG45QC1A
p1156
aVkDZUGqP3j8eiLKIExBWI8Q
p1157
aVrMC4XjcyxQtpx4ZejzPibA
p1158
aVWxHQX5O24QWJkV3_5EdFtg
p1159
aVwXQvpgxHM-13dulOMO43Pg
p1160
aVRjJGTNH1LAL1pJJhqJnvtg
p1161
aVD8EE4gbAiXS3DF_HNRJfAw
p1162
aVToY2qQZYBIGXqKGqgx4QkQ
p1163
aVEOffNH1xPOh6WMaPQrVF7Q
p1164
aVh_TlJAgBfSXG4Yw7rkC1Kg
p1165
aV_wY1dHBXKN4NjB5IsIk4eQ
p1166
aVQp1pHOQUssuX2MH_M8CXng
p1167
aVMilv8k4zZsoCaNFZugKtJw
p1168
aVcD5_lX613zUyG13MT_wQnw
p1169
aVLASSKMzO-XpNvKDlfTcCIQ
p1170
aVU2zN6K22bXa9EgfAmGIEbw
p1171
aVrg6MxcrOUNqsvUFl9RWPUA
p1172
aVVysCH2SU35qN5WlWJxujsw
p1173
aVDORWRp1AfwJwdu0Nfzuz3Q
p1174
aVo88vNyL8qw2q9M1rGgRSzQ
p1175
aVped2oFDSX-0JZOOxDJQEoA
p1176
aVRT6qe2ZAANWsBBZLhbTxKw
p1177
aVfR3LvglfLdiTXPrqsGaJLQ
p1178
aVGALRNo-AbcAHxEdmqKl--w
p1179
aV1noVqERUUdFh1iHVxPnllA
p1180
aV8JDeA__M765evfPv-xO2pw
p1181
aVp7PjqH8_0KFe0ZKHOlwz1w
p1182
aV81XpyQp_ObJMCQ85KFMRKQ
p1183
aVFm1kLWF2t8DdvIMs0zW2aA
p1184
aViFHk1IeIeMxL30QrH14EtQ
p1185
aVxl4yl_IFXmU_9bFL0zB--g
p1186
aV9VSegbNRzNlGKfBUv23vNQ
p1187
aVCRywkebZtGq0lKcbRlOPqQ
p1188
aVXOe-I25-W_FnbYfQyafylw
p1189
aV_46Sn7OmqF-odwJgfyPESw
p1190
aVbA4OlnXLTPTZ6GN0QRmw8A
p1191
aVpb0MADLnmfv5SzCVciVBGQ
p1192
aVUmHvuFL7DiEA7JkyskbFjQ
p1193
aVOp77M7U4GdkksPz12FikeQ
p1194
aVTEoY60poY_5k82q_w9zt5A
p1195
aVtgRwVGIhqN3TrF6clvRf0g
p1196
aVLF8U2She0pRYl5A479rPPA
p1197
aV7vEqbLlIaBCvcoJUz67yzw
p1198
aVsY3vAX43yUeZVk4d99cjYQ
p1199
aVt-27_YZKsk9tMbAiwQKCwQ
p1200
aVSv5kY5jq0Qulj5fydJY-3g
p1201
aVH23KoR8A_iQ1RgDZhVqwCw
p1202
aVJM26JogHgfsBEFuN41YGhw
p1203
aVifFTbGgwjXALO1PgMHzrTQ
p1204
aV2dskMMZLzaTjXmJ4ZVi4wQ
p1205
aVjRteemWmPzYuTxFe0L0xJQ
p1206
aVAaafbip-U2aeTXbvinBLiA
p1207
aVR2Pt2kZTrONyedI0-65FWg
p1208
aVnRNhtY7ow_mXte9wmrtH4g
p1209
aVbt6PwCE8Lc3YBFdx_qITzA
p1210
aVRU4VlU9LgbAEDMU3GfoldQ
p1211
aVSB9L3xDwYybGrYNhQPRC9Q
p1212
aVp2UKiLd0jVx17b4nVNOeKg
p1213
aVkuP0AMnSGgkLfNSt0wOAgA
p1214
aV2Vv78ycxr9m2ZktiwTbkWQ
p1215
aVMx-vxv_V-SQCe76w4RmUfA
p1216
aV5QIRfDmbYhVv7xDeiw4p3w
p1217
aVPEw095uxUWPYB-vsugwynQ
p1218
aVtrhLX2fxdqjuv_hCVm4N0A
p1219
aVsLMUvV5osYtLYU3JVBiLgA
p1220
aVDD3fOuL8bo6jrEsSeQHx9A
p1221
aVIXPibgPATsJo1uVaevcH6g
p1222
aV1I3Hd2TlG_BX3xIPXsttyg
p1223
aVAR9wLh3lEzFxitOaDFWUiQ
p1224
aVwq7PyqXT3QZ1UsOP92ipng
p1225
aVcTSSA0PFK6_xJAlj_uhN-A
p1226
aV6NXn9bd7TEbmiS7e8yf5Zw
p1227
aVsocNNfwbqsKoTvfSDA7uVw
p1228
aVuh-AusMLL3_83q0ywp_2XQ
p1229
aV-gAQMwp5b4x0XBqCtwNVtA
p1230
aVakjaV3M3qumD5HYkjU9dtw
p1231
aV_f_6B-oiWSXklz9F4C0Khw
p1232
aVbCLFdVfkAiZ7t1xDskb66Q
p1233
aVJGJ4FgFihTApMrjNn9kfDA
p1234
aVHIilP51OIzfmgS23vvFEfg
p1235
aVpUUmwguzGEAFXDrIkvzuag
p1236
aVr8nd1J5aXG1bL5ctt8ucCQ
p1237
aVCInFos81Gf4dkBJQL-1jGg
p1238
aVLGg1MNLAYWmHfXzp6hC4ng
p1239
aVlG08m1dziucV47k4olWjEA
p1240
aVdfkRRR7vHoF_0ApWjHsOHA
p1241
aVoDO8TUHqP5b1Dq60xITLyA
p1242
aVVIOt1BAZ_9Xig0Bf1EtIEA
p1243
aV0mVScF9nfPVIkS2OlbvpNw
p1244
aVKYOwoMnBtNhwBRFbw0fn5g
p1245
aV39KYyHuggTbIceHwpujX1g
p1246
aVZDKi3qsO8lSSogrIdbLJKg
p1247
aV14v766ba7jx8JV6BC1lJxQ
p1248
aVTqkBwRmoEgECElxeY0OgKA
p1249
aVRPuCnMVKNaKsSJ_INclzaA
p1250
aVNfHxV49mtVRq8enjdq1CeQ
p1251
aVtM9nH90xuXsucJ8qXcuUTg
p1252
aV7rSnmi6siHu6KJU3990oAQ
p1253
aVOpjQft3XugK05MtWegHFGg
p1254
aVC-DyhE2OMYRsahCVQFIvxg
p1255
aVLXg0qZbRViO02GezPRe67Q
p1256
aVf2l2Trs6c0DbWGMMllmJHg
p1257
aVab5LMDx_uraOLlIiwfKI2Q
p1258
aVQpVbA2JJvXzEW7S6wDHV7Q
p1259
aVCUUpi7gtqx1zojEGJ6Z5ew
p1260
aV6NfOfSxsYkWSgYB-oWRoZQ
p1261
aVhhlABhXouwdWF5YJ6-tXOw
p1262
aVJnEpFNLnj0TWOO9ZZ_Q4-w
p1263
aVr9YT-wfk8DlMyq_q4a_saQ
p1264
aVORRz8KqeiLFYYQuEYWdmUg
p1265
aVhf8wMckM9DMg_gp5Vj6PrA
p1266
aVPEmmEIagYJ5EfA8xfjWbOQ
p1267
aV7mqhV16NyehMAJlG6kX_WQ
p1268
aVLkCoTvna2lV6MPG4Xzoc8w
p1269
aVCBqhQFyUA2fVMF1NmEEgtQ
p1270
aV_BWhSAjVNmVSNl7pTG4w2g
p1271
aVBCU34iLQ9kHqslWU9fFYzA
p1272
aV_RN13rQ1c77hAi9LU7nwnA
p1273
aVIyEdBo884XBPmNLhIp8dig
p1274
aVJRv7TrR012humEezHENUjQ
p1275
aVqM5w7JwlEQGYlGtrOlEDRQ
p1276
aVz_umk5Ue-tUcnmcwejPCmA
p1277
aVmdqDcnfQfTIcxM_zaXWaig
p1278
aVl8q-Mj_CuEKgvUgnG7IkPw
p1279
aV3NEZvGl12UVuJcUzAfhAnw
p1280
aVvDHtHxgzZqL-qebSa53e9A
p1281
aVdFC0MPQQNu89a9LpfL4PhA
p1282
aViK4GPz61Yj_cZCMKC2C9NA
p1283
aVGzMh3V8oVBoII38x1GpajQ
p1284
aVT463_lixRwQCRjS0TEe1Zw
p1285
aV_cdM8vgagBmo3S2PcAycYQ
p1286
aVw1y7rcJAokqFyySEhd4r_A
p1287
aVHQJmocHzUhcfnfAKKI82qQ
p1288
aVbM2OTIopnFoaQGLxK2PxPg
p1289
aVg98c3p2XC1ePPDMUODT15Q
p1290
aV2uk4R74YwMeBQFFnWj5HQQ
p1291
aVAAX8oeoIq2UvMDLghGBclQ
p1292
aVOCkge7lzOw33bqMs1244Yw
p1293
aVrhxTEDhN6D-uSW2D7weUAg
p1294
aVvEdlJ7dtXRQgjxTdjf-j4w
p1295
aVrnuiIVuM6-wT7SJt_z80pg
p1296
aVFE3lnTyP4j54XlmHmxNHlg
p1297
aVJvylLkohihV4I6b24UCL_Q
p1298
aV9tELOBy_iGPNpNjXzkekHw
p1299
aVnBFR96CJqRtm5pfQ3xMn0g
p1300
aVPWXJpyVyAKtVehw4suOimg
p1301
aV1mzDvYWjU9lFKzOMHZFlVw
p1302
aVD8wdpaUA7cK73VEZ-Y6omA
p1303
aVysB_jaJVwGzgTa3s_KyHnQ
p1304
aVwTz9pYPDgg64PFM2v9gScw
p1305
aVk8Y5dMaWp8N71OO8jsl5AA
p1306
aV19ZqbAxrTdEJbvwjJSFsRg
p1307
aVzs_GJibScPz5Cbz1hoNanQ
p1308
aVGEUTx3re-HmI4fhc47klAw
p1309
aVjbd8Uv0r16Kwj3Ayd9vvuA
p1310
aVAHz5oFLWuWvDNWcnooM5kw
p1311
aVdk5zOa6PtED2eAMExoRB3Q
p1312
aVT_wjLgPOPXry7Bea4MzoVQ
p1313
aVIgMhM28GtVdkg7qwM-auLQ
p1314
aVKe9WsSOUOdQaTRwaYibYpQ
p1315
aVbLmp1BzhbHJ8adLQ86loHQ
p1316
aVB5LOrNT4RdtJ-kFEXs7qSg
p1317
aVHKMcpGwNg1zi2ghARQdykg
p1318
aVGBPEA07x_XnTi366qTrjjw
p1319
aVrJW1NZGbDbqtI4BcygndAA
p1320
aVo8CJ14Iz7g9A5N8CNfqWiQ
p1321
aVPOmVbGJ5nd9aZTxTJ_FVfQ
p1322
aVIlQkSpwXtYygzHXRCoveHQ
p1323
aVY9dC6RSXUtPC5o90ZnC3Kg
p1324
aVrLtl8ZkDX5vH5nAx9C3q5Q
p1325
aVF4Eigu2W0lpF4oEwa6lxDw
p1326
aV8tbXmjYGsYFZXk6ppuwRWQ
p1327
aVdU4aXFeWOBoZvgmBSDdqKw
p1328
aVhBwbBaBqofCgvkJ3PatuVw
p1329
aVWNfna4-XsIZbCrpCF0ZfPw
p1330
aVMdCZyRN4HfrfnmJlvTugEg
p1331
aV7b134wSLX8gN7G2sbLPZoQ
p1332
aVSIjLiu746VXQ2eI_mQnhWQ
p1333
aVo5Uot_QoTnTJB8CTKnPltA
p1334
aVepTMlecM8SZNjDhBsd64Jg
p1335
aVVFtBm5d3lZLNSnkZCSZgGw
p1336
aVzUZIhg3UPaLsWGex5EWdOg
p1337
aVQPSq3SwbTZbTB1dx6Ms2Lw
p1338
aVuWak0g1TXVr8axztY8Bdkw
p1339
aVObAgEif9mNN4VodOi7rEIA
p1340
aVDOJM58OkGSsIdk2qCUZnLQ
p1341
aVrlTc-qZ5qERiXFRUd4XbMw
p1342
aVw9EJaYDPKYBg8dkHxwNgHg
p1343
aV6R80N0O5E3FJ42f94O5RPg
p1344
aVSYoux78T6d-AVxa7FhD9LA
p1345
aVg3nLX8WMsmwH6gSJiPU9Hg
p1346
aVPUMROYfbVgKypcfJNxs1mw
p1347
aVWI7NLrNZ90cj1vPpFOOHUg
p1348
aVQd8hqPpawzkezbOZ0kXJGw
p1349
aVN9n6XgHfiaaP1axKw0cyyA
p1350
aVyaBTkNRszgPLez96qo3lew
p1351
aVl-1Ti_hHb8QIJFG0CbINIw
p1352
aVLuQD-Pm0zqorZDv1V4VSWw
p1353
aVD_-iaWZwRj5X6Fl6Oca-8A
p1354
aV82ZqgHOfUMV1xtpG2KfisA
p1355
aVu7fkBhl2yGR1ZGZMue2B5w
p1356
aVpkW2moNGANM2W50yqwaaOg
p1357
aVVhI6xyylcAxi0wOy2HOX3w
p1358
aVn71jnaDu0mVNW_UJgGKPFg
p1359
aVBFZD0XQ4C3n9Uc7TmppaDg
p1360
aVTpH2dPNn5ehrluF1190BJA
p1361
aVKVaCXKlrKSyqoLcB8WF_2w
p1362
aVGBgY4j4mZjB-eoRb359Nnw
p1363
aVo1IKKMxnl5lDR3-z4SucgA
p1364
aVia-Bk0oHTcutM7_Kq6Jrlw
p1365
aVD8GD--YyjXVtlYjDGZX1yA
p1366
aVxTZwuLbQtNtKl2rd5woIQQ
p1367
aVkbXND7Y3udL7sZA2786nCQ
p1368
aVEuWhvhW90cg3HLIHCnXzvQ
p1369
aVghPh5QV6PV7J3Jl4MH8euA
p1370
aVLiuKdou7xBsV-29MTlb97w
p1371
aVUHOFZkgIvb8sn3RSPMXMSQ
p1372
aV8OZ3TKist9Ekuw5T1LKRkQ
p1373
aVQCKH_57b2Hi146J85ns6Og
p1374
aVuxEe0lQ4XqncfDMMhZGQBQ
p1375
aVgVR0LJ5Dbfa3_bGOt-_6VA
p1376
aVq3kcZKVht4z6lLOaxRgn3g
p1377
aVqJQtWo10SSxifcXw-5RGWg
p1378
aVjykemU4-CaDr-8Lnei-_ZA
p1379
aVQYES_c-F13OhsFGB4twmgg
p1380
aVwZougLAnwunlZ92tHbyZpg
p1381
aV3DmA6rp1NHqrq938cnRCmw
p1382
aVuklc05zRRZuYzB2X015Vgg
p1383
aVbxciP2Aw-DZr9fVkMJtgOA
p1384
aVHhE4bvGlKB5nuN1odc9GjA
p1385
aVBmk46CeiMrga526ZX0eXsQ
p1386
aV7H82rkP108uQ_wXf_uMeRQ
p1387
aVIN2HcBun5PpyfQK8OC68iw
p1388
aVT3-UHagV42o4NpgqKJ2K6g
p1389
aVzmPzZYdZqP9MUfzhn8QTfw
p1390
aV9tngnaDXfVeKtXP84pXSjw
p1391
aV5k3g8CGc4bXSN3mcjFzWIw
p1392
aV_9Sj8L_XbVgSmExcvDLHiQ
p1393
aVyxHnHENAwM1wlwd5SdS-aA
p1394
aVCNw6OzOjme50i7CF8Bwntw
p1395
aVWb_kZ07Zsj8PLFcsiMeixw
p1396
aVlXhOAP6ncg9ENgA9ln_ijA
p1397
aVLes7_9h8xQDZuZbHhjVYkw
p1398
aVfm5-O3_otnzaAFHYH4pYRw
p1399
aVIkkXHuygD4y1tquSLhnpyQ
p1400
aVytDfLMUaaHsGbeJMIzWKsQ
p1401
aVNZUB8rNpZmAuGtiFfIac9Q
p1402
aVk3esMpsFS6lG2oRI6rfnLw
p1403
aVblimeRPMCJggra7NOCpErA
p1404
aVmGDjwSebGqtbBRREgLaE8g
p1405
aVrGXK7xWyvJLjAG9pHH4brw
p1406
aV9UtNYyrWnpMbpshMrZSRGQ
p1407
aVI5ab7grI_zRFieGVvDUPEA
p1408
aVLdEq_hOTltUD_PX_9_qlRg
p1409
aVCatKFlIPqxChN1Tu0LkYmw
p1410
aV9NMPC1bfwcJ2IZu2k0OAhA
p1411
aVglRXVWWD6x1EZKfjJawTOg
p1412
aVh-EjNgw2t9V6tiGd_Qxf3w
p1413
aVnVQa8qgHbdosO-ZDY9-d_g
p1414
aVVqSCQCva71Q-ZVcMsYfQuw
p1415
aVBZRGP49I5pK2YxZokJWhHw
p1416
aVyw7_Ba6yRFkK92_srFj97w
p1417
aVNd-bx8nCwoA5c14ugyVI_A
p1418
aVV2ARgOj_0v92gSxlgfx4Jw
p1419
aV6nxt7bPWPRJHwUKI2Leabg
p1420
aVxofFo7WFfHOkzbtoG6SgPg
p1421
aVDR6qPrRgeSwmBKAap41Xfw
p1422
aV56i3ZvUITU5MmP9tjhRCmA
p1423
aVW1NZ33Kh4BEZrjHqP1FD-w
p1424
aVBVJinahzVxJFLMA9bZY8Bg
p1425
aVtx54uB3v9-WNoKxWoJFgGA
p1426
aVle5mkF5BevJ49WnumKYZ3Q
p1427
aVOrVtmaML9UI99bsYrV6IQg
p1428
aVbcUjJrpo6OeQxWK9hY-gMQ
p1429
aV1hBqG6Fk5OCU8IMxCqN3Vw
p1430
aVyQZL8MTulNh3d3de-N0oug
p1431
aVspJUPXI7QaIctU0FO5c42w
p1432
aVwHfvDGojhXsB5mmAu8ulKQ
p1433
aVzCzIbD_gs9hoAkg0_R_Q_Q
p1434
aVIMZhBBEG-7b0EaW84Sttmw
p1435
aVE_KAdo61uMDvIvqFcOX1Gw
p1436
aV809QEhbAKPf2drYxrbjM_g
p1437
aVM_Nhgosc63jD-nu3XgpETg
p1438
aVnZFcWvgPU8T4JCjOVvJU8Q
p1439
aVKOIWgIoBEEIuAnUJm3HXOQ
p1440
aVKMpj7TQf2gGFwpL-EK5c7g
p1441
aV_Fxrn9P_nvvIY4JCvD5tOw
p1442
aVJZvaa_v0__hzdrwvMb1Rfg
p1443
aVxv_XC8Ey8c1Agc7La1pwAg
p1444
aV8Ggm4j6gnRSKo7k0sBmdyg
p1445
aVp3ZoNUziIevbpqVMoN-fDQ
p1446
aVTTP7l5g4QUVCpQZ9NTAWqw
p1447
aV-MyqAKY4nNPM9PDv2wrxRw
p1448
aV1Qs8pJAnTEdHv0mTcKny5Q
p1449
aVHqXxZd-lapvR0bvVTlKnNg
p1450
aV98f92DVyKhoQZ94DbTLVBQ
p1451
aV0MRlubaLu5v3sI4vu_XqDg
p1452
aVpXHSbmRWtYjXF21jqol2ug
p1453
aVoWKBHNGxTyp7B0Yr1dRxpw
p1454
aVjmv7eDUgx3cn1y-Qw8G-Og
p1455
aVNN17WrE5W9oN5UnvSNT8xw
p1456
aVLNKdYODHuGqah_nUaDJx_g
p1457
aVPHrPDWUCtCmkwx_gzTMGCQ
p1458
aVBfo9NUm-uYdNzLMyNfy_pA
p1459
aVV0WEZ2PQtJGX0sWNe89A8g
p1460
aVv5k-__wHo2xPI25WO-dcQA
p1461
aVz1_SJGzJhhXxR4ftohOK6g
p1462
aV2biTJfc25MuCOXD6XCo-zA
p1463
aVoz98YFoHRrJ9u-BIUFvwKw
p1464
aVJZ7N_ugLCrooDzkiDYXLdw
p1465
aVlhPHOrHafkiAtUeTDee9dA
p1466
aVlWcklENPjAi78Miv9EG87A
p1467
aVb8vpDCrjDwjXSr92JVp-PQ
p1468
aVBKo0QW3LGBzAZug4doJrgA
p1469
aVAu3Qs-AAZEWu2_4gIMwRgw
p1470
aVGX0dUsYmVzLgb0aiA73-rw
p1471
aVSptc2IOKAfM3CDd5QTCAAw
p1472
aV9v8BtiGLKWdVcCN5WK4s3g
p1473
aVRQalwji2z28KIPq4DwLXmw
p1474
aVxLbSUpVLC6AQHRZTwJvxkA
p1475
aV1LfUXEdm0O3qhEqkKZjztA
p1476
aVLP5MjcVLtG6TmXRykg3Tzg
p1477
aV2EDBVBqeQ0fuDvt9m4P8Gg
p1478
aVFDPjfyyHNfy9tqyxo27QeQ
p1479
aV640yIMkALhRVE3JYu13OsQ
p1480
aVcD9d9XFoC_bETPzjpnRj9g
p1481
aVb-Girgjp4FnLdfwfLDIHxw
p1482
aVD4KvR-cqveAMH8tLOIks1w
p1483
aVrxGMXiiZyxwnYUrWP1OJTQ
p1484
aV-XLQKak-GsDt_oTw5MutEQ
p1485
aVoXxV7lleT2lF2AwGZM6QWg
p1486
aVNzOrlc4LJJLRtfzoxkJFsw
p1487
aV7V6RYBSmpoHsVkohGD_yGg
p1488
aVWpAMN4ebd28Il4yamLv0zg
p1489
aVjIuc3nM9R0KWX3v-8OyLsQ
p1490
aVTT5WOWluwF0elhzJPrNnvQ
p1491
aVCs6JRqxOADfeqli20F5Yhg
p1492
aVk49tKSAka0GyvbL4HFYDzg
p1493
aVF1oGgK3NtTYnyRMxupiiuA
p1494
aV_3js68YksSedX6bGn4-2Tg
p1495
aVy6M7TDkbEID5urBb_2oQ2A
p1496
aV4NY9iOBSwI_AKZi1cHPMUw
p1497
aVts5QpC5ymz1m1EeumIm7Hg
p1498
aV7yWgjGRb02JcUtphd4te8w
p1499
aVc45AFDoQz5OJcZISlZ1y0A
p1500
aVOyGx_yDm6XoVDs_MzYjftQ
p1501
aVZPolhetd6Od5_VhXPbFIxw
p1502
aVw4dgIzMwwZvKsHaC47Ox3A
p1503
aVutcN2FtmIymOprcfFS-Tfg
p1504
aV8p4at4zdzCpueAmSBaorZA
p1505
aVVo7oomW3yovftNleHAX9Dg
p1506
aVZW7oLADt3iMhjXloUHJ7mA
p1507
aV8ncc2JviL8dOl9MLPpYMvQ
p1508
aVnh3mYZ0cIXNVXlQAoOt-uQ
p1509
aVmtfkAgyunxat9fcCvDLVRw
p1510
aV5wnW-qphVh5fa6qfMBzDpw
p1511
aV5SLqeubMzxW7ifBwmqhH1A
p1512
aVewix80iggo6HsqG1zQ2ZdQ
p1513
aVGtV0RPZLK2fLBbGQsm-rGQ
p1514
aV8Xnd_YqFUIPg0Nflq5wH_Q
p1515
aV6VCzwT57Vgr3JA4TIeF_MA
p1516
aV790JhUvCFexsA5KFReMhig
p1517
aVFOfUxCjxD5xpKM_7mphLJg
p1518
aVMoVzMz9uqrDQeQeazh3eJQ
p1519
aVy_iOYwgsEQ4RYfRQ6tRGwA
p1520
aV9fTTesCwn9EO-d82ODJAnw
p1521
aVLb0yp9YlXSh_6miFJCLqZw
p1522
aVqhooXf7Uh8NP3mX6YG3Drw
p1523
aV9UNGbiE9k0fvMpCMJp0Gww
p1524
aVnGYaT5sAuqKkd48dqX_2Kw
p1525
aVwM-4uxHkuThPWfSRaKXPdQ
p1526
aVJ1ATkrYS0IUkV4u-bkltgA
p1527
aVODhV53XhesCBLJVfGsJGNA
p1528
aVdLqqNMVnbF6Nngz4R60_Hg
p1529
aVdtE9hHw1P2NANIBMCp2cBg
p1530
aVVT-4bP-o0aUzRiosIj04dQ
p1531
aVnrOCJCQUgXwdUIwg8QHirw
p1532
aVg3z_RHT1oBH8e8vKcAUhTQ
p1533
aVCVLN1uZgGUky9Brlr8JJSQ
p1534
aVJjKJznvd5f7Io8hFJMGbzA
p1535
aVWS9jQRCTMN_TL7W_065G7g
p1536
aVdJyY3aXKL34vtCF3OP3FQw
p1537
aVoZWx-Udu1bV_jbR_MuXaAw
p1538
aVl5eF4e5dBrB9pXtAJn3hBQ
p1539
aVhuKYBfeFtYCOWs4I-GESSw
p1540
aVSfiNyNLmW7alXejl-m_iYw
p1541
aVpwFXtVzH_So9f3iqHCEhHA
p1542
aVu6VZAszfuylriytDU66gxw
p1543
aV-jgGsPzZ4W2TyGh7KOwl9Q
p1544
aVIpjuqXEJFa-tciHOE5NN8Q
p1545
aVbaQVzpnc1f9JmMpyGAHn4A
p1546
aVAODbZttUrVN79H_mzekhYA
p1547
aVydaYTc4HzEbByz4HhNzC0w
p1548
aVmYHfwCjpImZ2hfEn1pkFLQ
p1549
aV209Pltw3TJ7Zy31RcO8XXQ
p1550
aV0LoXMgGgnL4c3P8ldx5KVA
p1551
aVeAq_2RBtk_zmRy1_tEvnPw
p1552
aVfCHvzdXkXfI2ORPFk1U9-A
p1553
aVz5EHulCyTTYqHRDWoyrnKw
p1554
aVR6R2WBSbeRRftN-vXETapA
p1555
aV8zfDUTELhJczCHhq0QuDHA
p1556
aVzEggXKgiDxiSTzRo07GFGg
p1557
aVNzP9OoNP8vBMRUSs0UXBNw
p1558
aVpZSjYxdRazshCPbSI1Eu6w
p1559
aVEpkFuQVu3XBigTU_PnjzLQ
p1560
aVM0G3zi2UH1-ESD1rtomXkQ
p1561
aVdDdinrAqDdeR-LVhAuiOyg
p1562
aVUpPqFMrWGClk9YYfM9Ck5Q
p1563
aV_jpghfHskfOsN53gYZtHzw
p1564
aV3Zi1udoY2iT9s8Q3X6tgZQ
p1565
aVUDWNMHV1UqQAVgPzzWvZKA
p1566
aVrSbqoimVUWPEbNSGwyjI-Q
p1567
aVXEJKtrG2LR_wFjH05s6Qcg
p1568
aVIay4jEsj8GHzf1UA40ailg
p1569
aVQelj8uPxf0Ub5CFyB37kgw
p1570
aV9zZNilcQoiJicpenGM4-Cg
p1571
aVlIIoaWG_J96-cQyh0af55w
p1572
aVs2FbJNdU8vIOEk7n48HJ9w
p1573
aV1Lu8MAjA8byyrwHQoYpiVQ
p1574
aVWRODj3cwZSRD0QKfapmyiw
p1575
aVRoajVinaapQgQxXqCg6KCw
p1576
aVXgwpxdj4dSnKpYYd_07vBA
p1577
aVnGvolzdWXhC-U8U0ZLydWQ
p1578
aV-YVgvwt1Jp4XZ7QFmd-XQw
p1579
aVZTs-go-xYRQOp3PSw_XGDg
p1580
aVKVm5lSaNK-fL1OsbukgyuQ
p1581
aVC1NCPmIP-sXfYm5Ywhjj9A
p1582
aVHCrmPNeV1QzMESHHRBhOkw
p1583
aVSpyUjfaUXdhgAaVuhzNVTw
p1584
aV26Ow8ovoXuCdduVBwOwX_w
p1585
aV-K3ZjROK0ml2P-Rk7ttHzA
p1586
aVOIT6MBzr-yxw2qtokoSXIQ
p1587
aVyC7VOAAvoam0rxEjTUd3UA
p1588
aVXJwiv5u7h1giaxgYAOz8jQ
p1589
aVh1BJNxB6jPc6xGMACpqPoA
p1590
aVJF1FEhOHxPLgc9dJ_qOXdw
p1591
aVGsmmRjg6c059dhxsLf0YDg
p1592
aVA4PEFU6xorg3Gr8MssKi-Q
p1593
aVakjw1U2vzDrNP7ybg8Rj8A
p1594
aVwFweIWhv2fREZV_dYkz_1g
p1595
aVnKaR5Z9Qmqc4RsakLLX_7w
p1596
aV2fmj5ng3irLWTr7CKrSxxA
p1597
aVBDKaQY0N4NQxTUaMdoxKFw
p1598
aVpVYLj3qq6-zdEWFUiC2CQw
p1599
aVv-FX2WyDYOpA6wqpzudZ9w
p1600
aV9TJD_b6WWp2l4NT-qZaH8w
p1601
aV2ShjrKMCIcLRLCtafbqJmg
p1602
aVv4ejNYOneqVyFU-yXO3wEw
p1603
aVN18SNshdyaB2vItkP5zG1Q
p1604
aVNkaFJUKzzQfMcFekrZMwnw
p1605
aVgIWhLgPNT1TFWBZtShNKnw
p1606
aVf3cFc4_r0pdY5Wqb8W9w-Q
p1607
aVMOdILSTOFnq0iXHN9l8_zA
p1608
aVTWIg1Jx2jGiC8UqaKpNorw
p1609
aVsFQsKwx1iTPSAGYOo1yTdw
p1610
aVXo4tysJw1XdbYF6P44vbWQ
p1611
aVhKU9eYeo3gJnduUpWDCCoQ
p1612
aVwgcZ6blNmIpIREuJN1vhXw
p1613
aVpk2kKnjUhl5-Hv2Gygoctw
p1614
aVbKhM7KzqdM0j2O4SOLmSLA
p1615
aVtqCKgb6HTj2Qs9y04p5ZMg
p1616
aVQS6NNvy-k132mSImi4kIjA
p1617
aVuGWoaSdH2gOtl_Gjo9G40g
p1618
aVCvMVd31cnTfzMUsHDXm4zQ
p1619
aVbNrr3RJGMO_gOrKpDudP9Q
p1620
aVmvRps_pPV9aw18qGRJ626g
p1621
aVNBO1pzogTGH8wejRcdyC0A
p1622
aVXlYbPATxPQRJR1FOZ81yog
p1623
aVeelWS7zIYMM7ci7dEd7MCg
p1624
aVUoS4bUrlIvs1gqmHCoB_Hg
p1625
aVm1wgM90q_3Geq8LywXcU6Q
p1626
aVneOOSMNWcVL0o2Xwb0goVg
p1627
aVww2K-1OgVGJXNUd4WtfRGw
p1628
aVcTyEgBRwcGhWiq6TZPMFHQ
p1629
aVQS5c0pnSNWbv5D9YtuT2vw
p1630
aVxwcvsSC8Virgl7CveVvB4w
p1631
aV17xLGvnf-fSATC5fuk5BCg
p1632
aVVgjgoQDmWTDXrWj3MqJRRw
p1633
aV3Y27vBOZzbkBhelwqu0rIQ
p1634
aVI5tOYH0rnjDxW8ieL3TYyw
p1635
aVl0izzNMbD2lL9xcOnnMEag
p1636
aV5hptLoN75O1O8_xEgQip9Q
p1637
aV-XPEaiJ9djZ5FugRVauwsg
p1638
aV8v9q-mpjdna5X2VYCEniew
p1639
aVFbdB9KXyuvT8rC_zmqRSuQ
p1640
aVZFaem6KoZxMy3pgZSet2rg
p1641
aVUOppDzNrQokBg--Br_9wOg
p1642
aVW98MlFKogX6oGoO026bTvg
p1643
aVgc4rNAgbGydNMAPJ85FZag
p1644
aVSRSxFmtaaePlmmebx2QRgw
p1645
aVXfkCa6Ma32-KZOpMSvQ0mw
p1646
aVUUHbKus9GdbL-bFervUoCw
p1647
aVQB2h8hRFcVokhZuajF7Wiw
p1648
aV9zlwzi6s2nm-q2fy7hNmtA
p1649
aVt3rZpAy4CrPi3kuJGfuCTA
p1650
aVngR1Y009kpsuqWRdlKp7hg
p1651
aVnjQ8Bn6HtqD0iMI5ABX38g
p1652
aVJQGSDe-kap-IuUSH5q487w
p1653
aVEuYX6_YkzKYmazHmQGH_Gg
p1654
aVzdZfTTdKbWgTsce5v1HvSQ
p1655
aVTQ4vRT9ETlxaL2Bvoj0fMg
p1656
aVb-u85eePnSX5XtfEzIz7gg
p1657
aV3U-MZ5ydj-s8oOJW7lk-Kg
p1658
aVtiPH-oA8Upuls0__lZ6XqQ
p1659
aVcduTmD2AKlX6p2pIVsTzpQ
p1660
aVZpYfzg_GZa2CwWflRR2b5A
p1661
aVrSBYu1pV5AF4WGJUWIdjnQ
p1662
aVV4VW69mBsRzfa3mLmyBqLQ
p1663
aVPyeEPahaIMGQo0v3F2tplQ
p1664
aVIkf6HMvFlXMEJLW4HH-tFw
p1665
aVgyBs-PcHasLx7IF9B6OBZA
p1666
aVTmrLXwR7eTyy0nzxXhdcnQ
p1667
aVinkv3_Ja07wnzXvrc_-4eQ
p1668
aV7pfs-dhgcye8nE1ktpVJmg
p1669
aVjdP_qK6pEfc1XCRnEhlIPA
p1670
aV2dcPh9j30SrIYO9tB2YXLw
p1671
aVvHNtj4-I_H6nTRPUaoU5tQ
p1672
aVVe05sG1S5QLSm5Yuo-96Ew
p1673
aVYEyx8t2Okqy8JDWHcF8C9Q
p1674
aVvasHsAZEgLZGJDTlIweUYQ
p1675
aVr4i7uL7zx4u0M-WmWdZZgg
p1676
aV6uRIFyibHWozuRjZ10-jiA
p1677
aVsQBMbqZWNvqII8QwW_6RPQ
p1678
aVr46fg3yYJganUaF9mCzf-w
p1679
aV8dbRf1UsWp2ktXHZ6Zv06w
p1680
aV2VhcOYqEFiZKlFlPrp2VJQ
p1681
aV_X6TvNAG26owDEKOcPe75Q
p1682
aVBzsUOXhZ_i-fjigkudOLcw
p1683
aVo1Esx88FqeolMqajzjKZpg
p1684
aVrWTgooIaB6vmD5bKCJgkLw
p1685
aVvY1kebWNJBBLPGZZ9qbl3Q
p1686
aVvWZsmtNF2O5W_hcBRFK3lg
p1687
aVhLuKgo7G6us4wNQoFb7N8A
p1688
aV0A2phOr1tuw5xfc5Psc94w
p1689
aVaaton9Cy93Ae-7Kr-OEr9g
p1690
aV9qUYm17IHOA5AgRfSoKySw
p1691
aVURcLQkuZWiAAvVnqAoNfRg
p1692
aV_W4Pgs4js74DZCMQ4d4jLA
p1693
aVrzhjzUy34KZA2cL-gJaDuQ
p1694
aVTM6LLYhkkV1VwTDkHE2tiw
p1695
aVyIo81MlQWemhrXOPv-qFdA
p1696
aVLw99LHT54yb7ED0qlgujeg
p1697
aVU8l76MT2Ej32cFKfFI24fA
p1698
aVLaoc1ZOWoeNjR7CyWGDX-A
p1699
aV_-W0caBilETBPJIlIqbKSQ
p1700
aVmzM1y8_2nIdU52BHnCNrXQ
p1701
aVUlkTmq_VLqEYwAnh5196Bg
p1702
aVBJcN-MemVWH6vPdwbCzE-g
p1703
aVLYBDUrVgaeMuD62ADMdqJg
p1704
aV-ebYDOeqkWCuFCL7JO5I9A
p1705
aVH1r9_Qxbh0zGMii0ax1C_g
p1706
aV9P4YzvP6My5ktU6s0cA7Yg
p1707
aVXY_bQqhZfyyEi_W5n4kQNg
p1708
aVXrfkmMwiaPwNN3ww-T_MLA
p1709
aVQGRNWxVU-pbd3piNFWU4Wg
p1710
aVWBQrry43eaTOIPoJjwczyw
p1711
aVHY53AFJzVN8DMHMn6Cd6jA
p1712
aVyuVXHT4DzKgWSz7_1RvDWw
p1713
aVoPjmenCi0xOw1WnXmSh_MA
p1714
aVDdEm24t9KK_C6kP5z1osDw
p1715
aV6IHcb7PC6qiYR9qEsBieVQ
p1716
aVlpZtfD-vCqUER1yGKEvUPw
p1717
aVzWli0lD5TNKpTSHjXWdHxA
p1718
aVZ82HLQBeNdrGKGEzbI_zPw
p1719
aVJVnGX-4Rn_jMWB9picw-Vw
p1720
aVpo_IfliSJIPzzvd6UfU-iQ
p1721
aV-K8xcVpQN7jJLwNDDuj1xA
p1722
aVRKDSCRbN17rlE4ayYiyEqw
p1723
aVv-b34wAC0rJVWk4dCtgkXw
p1724
aVuc_kCbu0N9hztmtSkSHEtg
p1725
aV2t8z2r3KYbBpZUH_uq9yFw
p1726
aVC5SNlxImCgHrtu3B3faSlQ
p1727
aV9U1PH64Xqbfjc75mDnXbsA
p1728
aVNduGDKc6hLcb1S6OtW62XQ
p1729
aVwx12_24dFiL1Pc0H_PygLw
p1730
aVd0PHPwf_MZs-ZZ_d0iSapw
p1731
aVaqcxaC1SwdL9XjWuZ4MxoA
p1732
aV08tQjvwbh5hEoTq_mJjtDw
p1733
aVRF74LWUXaoZjNPpt4782pQ
p1734
aVQ7SjcvCvxqsbqVnqU7EN1g
p1735
aVugMQjVWUnW_3An7fJEMLbw
p1736
aVNtqtKtuFNLXFF8gqb9td-g
p1737
aVHpjppzvCJpYHzPVtjevACA
p1738
aVP5VfQpNis_p_vAh0m8xzsw
p1739
aVOXzYyZSHo9Dl6Qd0s_o2Ig
p1740
aVDJWC4idmjq_FmcOCbTljLw
p1741
aVHPxji3cX5H460ECCgtnGHw
p1742
aVS3HZF5aANmhZoMkFkPMdqQ
p1743
aVNBWUrKMUgC6xh5yf10-gzA
p1744
aV9YVJtEzVfjfNujAfy0ysHg
p1745
aVvn3lecMsL3kXVe-7hg3gLg
p1746
aVYouW_cDsluvPxV9rlDYvMA
p1747
aVnPDUuuX_2C_GZpjGifWRYg
p1748
aVt5AWRnd4Eb4cdjtBgBCasg
p1749
aVFUId2sKCoanj_P4JRgQn-Q
p1750
aVke7LgKD9XV7tDw9HER-Ggw
p1751
aVLdhwY7eudLlx1KFQQe9GwA
p1752
aVbvJvqYTSnStE8QL5fSJCkw
p1753
aVgxOZMidTXSm2z_0AecgbGw
p1754
aVBMQdK1kdXCiDTaeaIYxmew
p1755
aV-OXNFm3dC0UYT-yA4IkrsA
p1756
aV5HWf00VduXm8olEyR59_Wg
p1757
aV_AVSpDL3qhiZD6N2YdhpJA
p1758
aVSxHFDNhmPp7xga6ooQ1eBQ
p1759
aVlC0KGXmIhyjzghBUlVnkhQ
p1760
aVGAeM4pken2drf7CpuKHuLg
p1761
aVAQnk7fS3XdXYM2ZWSF_Wqw
p1762
aVJnFI2B1H5DkhVWM5NehsDQ
p1763
aV4XrpU7kpxbFqMNdDEsj-xQ
p1764
aVKsh-pjTVoRC8EGMR7G-boA
p1765
aVJmyFxjiPLygW5ToW775pPQ
p1766
aV3LaLg5Zg7d3FW7hyq8AQPA
p1767
aVOvXnk1S60tKzH5n_CrwyIQ
p1768
aVDLP3XfRNhTVxXlCRJpGLNA
p1769
aVibEK-BLVXBl1cW2lq5FvRA
p1770
aVuJVv3nSqscK0_c8cZSlJ_A
p1771
aVx-JcwIoL-b3FmJ6I0G8Q7Q
p1772
aVdeAYF4xLVB9n-Y-fxGyhNw
p1773
aVWpG-g-bcIoi9s0n41gP85g
p1774
aVZNIxRh-iCCynnUk5PFHJnw
p1775
aV7ACTIN1VopEKbmKXog2DEQ
p1776
aV1BW2HC851fJKPfJeQxjkTA
p1777
aVSn5VmGYLYkcEMVjvze1k1A
p1778
aVM2R5lDfU72VkRWsd_0uICQ
p1779
aVenXVISXPVpRv3InUhexQNg
p1780
aVI9mIKgo8cvSwLC4kIe5MMQ
p1781
aVZkuPKOz3tN9iTUZrGzj3nQ
p1782
aVYh6IPYTO2YsunUl9aeyU1g
p1783
aVJXOVmy5n0aANd9TEKvMoCw
p1784
aVHRLkhkYHiM-awcj2k0FgJA
p1785
aV8T7VE9bwNoEUs_0RervT0w
p1786
aVdr2Z50uFoCvYkifzxa9IQQ
p1787
aVB8pmNy3pUAeJWg0rEtf9dQ
p1788
aVl2FAzcmrBNhmuF7G7XdQpg
p1789
aVl10Z3-aGfOokEutif0niag
p1790
aVyhDgEDo-u9NlGJynZK8HsQ
p1791
aV232eTYWlI4pnKRz9nh4nQw
p1792
aVIN49cEfDQTbhr_SaL9y1OQ
p1793
aVfGBQXv5-9eRBjwhm_EL2jQ
p1794
aVqN6SH4CKMG46LNkl8zL8sg
p1795
aVchPrkj4zYNNXig5sI0Udew
p1796
aVbeFBVr42X5PdzazW6AuthA
p1797
aVyUUnTJ4mGs7CxMIWqUSfog
p1798
aVC1SiUu-sGXL6lHlRkJxfFg
p1799
aVZcNOSxKpSw3Xd3ZL4ex0Fg
p1800
aVIJFzDrRikDtYXUMqvHGhXw
p1801
aV1pF_YG6foh3aJqjVZn8Qmw
p1802
aVAHgV8ONL8do0Dmlx9-tM0Q
p1803
aV4dkA654ss5dMR9wG_IrVYw
p1804
aVUpdAuxn_6oxYpSsMowmgbA
p1805
aVpQZ-yK9zEnvtg5NRqTowsw
p1806
aVC5YT9IID8c-x20EXsxHFXQ
p1807
aVylGYTVXYss5dk4SRqQsu3w
p1808
aVuV5fELkeuJflf8slZMhd5A
p1809
aV3ZQsNZRW-OhGl29ff2QGjA
p1810
aVUCOssThZufcqehMMe6OA0g
p1811
aVOXL9-5XdktfJQ3WdEOPSVg
p1812
aVao0KOJbU8qoKz72TO5QRNA
p1813
aVZwtRT0gc4WZ4Q563ifJQQg
p1814
aVu_wXnVPQ4d7yAvz7xaoqsg
p1815
aVJu09FUAava_EWx_6szpnug
p1816
aVj68jx3DUkW2_6txDzqTY-g
p1817
aVk9NXn2KCQ2k8wteCqH5cSw
p1818
aVEd-2su2WyQRShWrLFdY_Xg
p1819
aVY5B2-04eA_F5zGyHUb7OpQ
p1820
aVtRy3UZHBPT926UgAE9O8_w
p1821
aV5Q4Xz6QEoVGLlEN_STTtHQ
p1822
aVFky6k88rN4_XN-wicz_9Vg
p1823
aVW2qM9vaFHiAonmogmX58AQ
p1824
aVfpRXn7pFleWb0sgOHn1npQ
p1825
aVZP2PRJ8DAxDamxe82CuOCQ
p1826
aVBT3AQK9b5oIAdVve3_Sh1Q
p1827
aV3ceE2d7-nRLASFIALsnorg
p1828
aV_tdK3xZ-xf1Y_7rL4V5xMQ
p1829
aVHIlrU4ShA10pNwwhc4xSaA
p1830
aVRenOpB9KRRx3_MFWIzI3UQ
p1831
aV5z7yBm-fIyfCF3CQJkuarA
p1832
aV7EJJUCl3lHM5mYlFX0bLEQ
p1833
aV1-CrNyLusSNYdOhWCKHnlA
p1834
aVEmFOHQzNewGtdLWlvvosFA
p1835
aVPCny1cwjCCu19VudKeCanA
p1836
aVCDTNFwOXygHDxxaiIyzzBA
p1837
aVFwzXiPL8nY3PmmHjRP1h_g
p1838
aVuO8iD4P9kHpzkSXLLK27bA
p1839
aVqOVcYwNIOMtPnve8a16tGQ
p1840
aVCZAw9nxnBWr-AQHdRLvU6w
p1841
aVJF05ffi0qdheB9Ti1kACOg
p1842
aVwKV3xCxJcnBnQ03eGp2bPg
p1843
aVSj4ruod2J8tUc2PKkc0IoQ
p1844
aVml8-oQjWKT5YBCkT9p-yhg
p1845
aVen_lBIEoyYdByLHNGdWF7Q
p1846
aVdGfMkK_fdj6nfiSeEmtzrw
p1847
aVGlAL3I-vsN5dbnOP_vQV_g
p1848
aV6rs7VCPIFNsM1bx60qKqvw
p1849
aVTFtyj0Cx_gpBi1yFDKccmA
p1850
aVaLnH0qJhmI-KVA_rfR-8QA
p1851
aVBxypvn3rP1fwamC8cU4PYg
p1852
aVMTQ7_0ZDOd_vS4SjczQcbw
p1853
aVT8N53fAhYESlrJUMEsBenw
p1854
aVjcoXg7IlOR1LBCgtMLdUsQ
p1855
aV-Do-a2vqE9EoXtnV-TZEBg
p1856
aVVRsMYNzt0FQ__gUAOuRqcw
p1857
aVESNUEr2Ex3eU3diQvQWILQ
p1858
aV2bAbL28lhrnyOlYiZ8yMdg
p1859
aVzFW9Mp34CBuAWGYZOt1o5g
p1860
aVnG_zliKHG2PUttJa8z2APQ
p1861
aV4jz83Df1emVCgifPOfuoFQ
p1862
aV9GJHHkT8x6NW3x_nXyvPMA
p1863
aVgsdSJTKtaLtjynSD6hgQVw
p1864
aVQWkXgWM7jjIruQ4Q4wzZWg
p1865
aVZJDoH1d6mPtsdMFDFV7wsw
p1866
aV49kzkutc5_UFa2hjLEFYGQ
p1867
aV85uSaCejFtK-8oVyqN9HHQ
p1868
aV9OZH1Ecw-qUkCW5MS0NefA
p1869
aVo-B090oRMU1Wej-o3KGT9Q
p1870
aV5-zDa3uehYmGqrzc7esK6A
p1871
aVzSsucoCEGxnw4vxmSQXOCg
p1872
aV4BWGVJEqqOnihPxnZbuEzQ
p1873
aVdYWzKUPzpuCEJJHzOeVqxQ
p1874
aVmEgD2AGWGKD_gs-Jf3Ypew
p1875
aVYzKzF-cYKJnnZtIj7fe3_g
p1876
aV9BALHxACEqnLtLHLY1cNlQ
p1877
aVmUznWCN0tScMnMcMFUqmpg
p1878
aVyl3YZddzKKGdm0a71su3Xg
p1879
aVIX743aJcFbmqcmne_ov_2A
p1880
aVkNtuMa19HAvQzrAFjXc0RQ
p1881
aV9FDMUyJStI86B07bKQleow
p1882
aVfjGY-tlAkyPbIqVWmgBsEw
p1883
aVsZUwd8g_crDamsZNvw2E_Q
p1884
aVaGpFWlu6vOsV1GRUmpWllA
p1885
aV34gJ_KlP3RM6jotNT6TcDQ
p1886
aVKQP4Xl3kKNALIQse1BeCfA
p1887
aVNJB8VnfJZdEnIQxawIh5BA
p1888
aVSx2OM_pi-NsqNiZk1fMNXw
p1889
aVOWwNgrFIzXnUcqPpTx_53g
p1890
aVLMJ-eXo_GEKUJwuwOEHzwQ
p1891
aVbRLPoRvnbJbh8SiLjQRBlQ
p1892
aV60lHfhyzSwACS1TRErqUjg
p1893
aVprt4Pvu69WGv5pc87RuLMQ
p1894
aVBkxbkiTa9_9A7j-0BRGEhQ
p1895
aV8muABd0tSq9xrjCa9TltZQ
p1896
aVQ3oLto-17WmWK5-iazpZXQ
p1897
aVdbzRMMi4ZWiH37rt7RNizg
p1898
aVsQBk81qRtXTx28SHGqoX6A
p1899
aV1D5xuAHi9TXN-G5h9tPntg
p1900
aV_AJekjxvLJlt7i9jXGvumA
p1901
aVPce6723ATKGKuI4SG8JFYw
p1902
aVQ1fpW3qiL3oOe3b0si-0nA
p1903
aVd_KgMQIH2ekU789WghwKvg
p1904
aV9LwyHtKt5iRqlcFH-897aQ
p1905
aVWe0BLw5csPSuodlGXdTXfA
p1906
aVCWqDJ99YEXmqrbXNy7NHLQ
p1907
aVPkPyd4PZvlZ-3O2ARq8Oqw
p1908
aVR5yR3y6Nlvm0TsvnHXkDSA
p1909
aVV0if1DQ0MaTY-shWddXCsA
p1910
aVjqlPckTumnpCSvQ9jkiXwQ
p1911
aVAeucYo8J-rZjcq09Wuqsjw
p1912
aVLhcGcnw4eHaxzg58y2YYUA
p1913
aVPr2bD8IxmJPOt3MPcwJbJA
p1914
aVsPEFql7fLp0oouFxnooGpQ
p1915
aVPUh7fqdsIcLwA5LxD-WCSg
p1916
aVrzHZ3iYVQe_8h2e42DbUsw
p1917
aVlT5B7K8p57jQ9KlkwMkPmw
p1918
aVjdyV9MtV4_94VDP9aYqC0Q
p1919
aVyA77gvXdxFViK0mZcSiveA
p1920
aVK6MrbZeqKG35ZiucFfucvw
p1921
aVUD7Y1CqfY6mDmRwIuCf6nA
p1922
aVzo_32oay-tjJ6ckos-vVCw
p1923
aVxzAHL7X8LDiSUdFNtB_APA
p1924
aVRf4ldVXX_zHwRauT6ICk2A
p1925
aV5OOuiG_basiJFfAln8UtAA
p1926
aVvoqhxAies6n_95l8usebsg
p1927
aVuRhxqIdyu_jjoDKm8lSEDg
p1928
aVAiuxEpAxjPN7ciIrNupyWA
p1929
aVCxqXgJ672n08peXURbyUAw
p1930
aV1DB-S0AKdjkUhUBzSuwB6A
p1931
aV6VFHoeOaYCwZMgosAf08XA
p1932
aVr3wE-UMb-ooPsn0805v-3w
p1933
aVeVTcstm1qKf0U7oppUZQFA
p1934
aVSgDWDjBr8fV7id1UnFaAFg
p1935
aVGJrGPKF2xxB06Es6aH1VWg
p1936
aVZ2plM53IU6v6rVgBSgkopg
p1937
aVmqyH3CqjMufsm5FccDrjLA
p1938
aVC0F_DP9yO18mLF73IKhcGg
p1939
aVNrgIE-qEt-qnGWdZJP_BuA
p1940
aV74oc3KCvVhvmo73Gk2gv3Q
p1941
aVVrpOQV5Q5K_oIX-pqW6_Og
p1942
aVlmiDCrmas8TxRsbIGZX9Pg
p1943
aVgFQDzGzufke0NWzb_AJ4oQ
p1944
aVyY1MgFvfDVDhotp3xWJLlQ
p1945
aVNf_8RYY4dTnvwaz96KMq-w
p1946
aVjKn-ehjxG6l3o8gy1p3ZOQ
p1947
aVQiSSo2Kg-znygvxJz_67sA
p1948
aVh0UyMagnO4COVH5KDH3hZA
p1949
aVq6QBo2RC67GIHhDLG7ssDA
p1950
aVDHZ-kZ9sPDMmpnyFGXQ4hg
p1951
aVJXLIHoA6NGmOl2LznYH3PA
p1952
aVhjvsUcztfGB2u130R9WCug
p1953
aVllzUppvv0t4noKubpIWCqw
p1954
aVDblIKwFdkkTNAeft7J4Taw
p1955
aVh4tfHGODErFCFrg6KEZ3xw
p1956
aVrnMXl9whqnQSZtBFtlNy0g
p1957
aV80c4xyemPV3XaMwlFtzVvw
p1958
aVlbg82t_mmEvlku3uVXn5TQ
p1959
aVPTqGpKNODTChfyGTRskFzg
p1960
aVja7jzAqT7purefjl6wBxRQ
p1961
aVuvoJwcQxHfMfqDIX3a4xKg
p1962
aVmRVLpO33EE6qHJqCfB48MA
p1963
aVTPracyTuh0oJikeyTA3w6A
p1964
aVwPjdB0viLu-i7YKGG3LJqA
p1965
aVjvhVRQ--8liQcdJvqDXwbw
p1966
aVhNqEqYaRD_wLgShfn0Kv4Q
p1967
aVYaDoz22xUMKYKgrtK5cZ5Q
p1968
aVVaBcoKQHmRnwtVkUypsvwA
p1969
aVG-jipHtQxKH5CLa47mn51A
p1970
aV23ih9Fdu4v2KpBE1JDoVJw
p1971
aVWapiDiv7IjzfpIeczYwMIw
p1972
aVHcRkWWnGJ_7iYJs30zXrxg
p1973
aVIT0sp0lM1ETIPQO1Z0c4oQ
p1974
aV0CC4mLhyxpiq6O4nQpnQqg
p1975
aVv4IuHLQsLuJ5vVve6atgzQ
p1976
aVcRyNICH0mhjxagvSyVr60Q
p1977
aVTi86eeLrIhpNHDpjbla_fA
p1978
aVZe4YIsiTXq2yrNM87Ue31A
p1979
aVN1EMQkSiTLcWHyG-VweCXg
p1980
aV8n4SarsuI9Km6lEtydiE0w
p1981
aVHKTWp-uHABEbNIFK3i4LCw
p1982
aVamr0FHCs4EBYmy8_D2UGGw
p1983
aVCdrOG7bBwAgHfkskPlA8xA
p1984
aVV4ND65sPYjWqUbLvpy7C-Q
p1985
aVNjOYSgr2LNMoSPi4e140Ig
p1986
aVekfSera3-_wJrAiRaoKJ1A
p1987
aVhp6eRTTck1IQ1PwHwJx4cQ
p1988
aVz3Hf0snMcvVTR--nC4uOLg
p1989
aVzZlHqWiCrCj0WKSNI1Nxlw
p1990
aVh5c9zka_FuMAIpDZ2X2Wew
p1991
aVI37ejvLDijHdqv6YOoVmIg
p1992
aVrKMJaCa-hUjeZDXEa6rKMg
p1993
aV1sDu-W8uXNZZLuWGcohy2g
p1994
aVU9j_xFnRVTXJGe2hNUZX7g
p1995
aVWmhvywSbr4B-JRcdoHwwVw
p1996
aVkV5vDL9e0HxN1FuxxSCBIQ
p1997
aVWTEcPmeEf5Pqv7diNm4wuA
p1998
aVy87DXWU4qy_OKtPJgnQFgg
p1999
aVL0Xrx4zdjPtPDcLcE0dJMg
p2000
aVNObfIhH5Lrdrw6PALek9LQ
p2001
aVlClvoNr2cNYM6hC_rG7yEg
p2002
aVtaQoRWH9dr0jYPMIJC8e8w
p2003
aV9hPoAujvzKe-pxeCaHchgA
p2004
aVLsWb7sIq5Ywi01GIYOZzmQ
p2005
aVvLFk6nslFe35NKvlU2Tz9Q
p2006
aVnkhJYqK24Plr9OHciX5FUw
p2007
aVgRxcP_zpGnZ5PFeGgFM3UQ
p2008
aVe6f6ETqM6c-SF369w0wqDQ
p2009
aVAVMN_xKLGaUW99lYK4XSHQ
p2010
aVbIzXegnjDpfWJazSh6Fu8g
p2011
aVBRydUrmdK4pZsbUvZ8tBAw
p2012
aV4q3czSXkHBPkW21RdzpJ2A
p2013
aVZ-TW_TppnxT4TkFeavNaQw
p2014
aV_L1NbjxnLRJMmmjgVMdX7A
p2015
aVDqQf_U39vTcxd4nwNSbZ1w
p2016
aVc1J3fJozDVHeICaYc3t2ew
p2017
aV4FJKLPkl-mvUD0iV9Q2p4Q
p2018
aVr3diS8VPXKbRCsrbPtXFkA
p2019
aV_VeWBpintcoqjIcJdJ0_AQ
p2020
aVKyIPG6zBQj9Jqgl69tHtNQ
p2021
aV4JMLe_6FHVUD2ZRR1r3vlQ
p2022
aVgqkKPS92L_qG03gHaEtIsQ
p2023
aV7s9BkBonSqGHdVkpC_qdbw
p2024
aV85ZDaEjICAF0-6OnvbeFag
p2025
aVE4HbTIHd9PVjUnEKpysaLw
p2026
aVANetBXp0CdITDGhp17huGQ
p2027
aV7lAr0ypf1jEA4qJGCWYaTg
p2028
aV8qBnLmI1xd5ZrHeV7fBJZw
p2029
aVbAyT4kIMky9Gn8eFeZlSnw
p2030
aVD7iY_stJhsdLxbiOR3gOYw
p2031
aV6wX7uHlJMl_kaGvhNpNTnA
p2032
aVbN-oNETOC8RPVRWdBfyMPA
p2033
aVVFL4LY37bEvyDPobGoxvXg
p2034
aVfsSnng8XoT0sOKW472RQBA
p2035
aVKx_IT3LiBivsuoaKnOdNOQ
p2036
aVTdjT7TgOWhBxhd_lgGygCA
p2037
aVxBOjmYlcTheqrvH-CveHwQ
p2038
aVIHt7toZZ4RlGvvz7aaKI6A
p2039
aVsVqdFnlxtZxYB80ZzZH8kw
p2040
aVFvqYM_zHngZZ5JFG1hLrtg
p2041
aV6Jh0nU3Xey6J0YfpSJLUwg
p2042
aVZ4Kn84VryzeJK-cGOfm6Pg
p2043
aVAbO18pf8bXG1qF9bb9L6wQ
p2044
aVQFj64b_eNwQaeJTvgkcvQA
p2045
aVfFmLNPsvu-mT0ewk-sG37w
p2046
aVzanDVZZ6u4k3DaGbOa_pKA
p2047
aVDODrRvjHBklw-W8ueb1CtA
p2048
aVFTSmBX-WvzxFpH_vOiRIkg
p2049
aVx7twQq2PxhdPuKTOOhWo7Q
p2050
aVhG7tKFN-REC22Zm48IP-0A
p2051
aVmdJZA5p391bCOZnvAxHV3w
p2052
aVIDHrwv_RCildFvmfWTkj5Q
p2053
aVy_jn16HpJkfW4NfnKjfXLQ
p2054
aVx3GYZy8dMMw4j7eq-JN7Bg
p2055
aV3DJLAIE0soSxYdvF50L5jQ
p2056
aVdinZ3pxeWAG9ouMutcH63g
p2057
aVM1EQRRC91pofvyUucOEmsw
p2058
aVIyKosl07zfd4M1bMGNpxJA
p2059
aVe3RgGXBrk9BZ4utixycubA
p2060
aVHU4k7g73kIZHAtp6Ajv2-Q
p2061
aVXAAs2Y77fUqV26C2ec5-7g
p2062
aViZkGpLxDooIvqj96CS9BNg
p2063
aV43WQN_FXtzMDYHUqMeaoTA
p2064
aVp7xa33mWZkhV5HECw0Kk-w
p2065
aVuuy_NVUeF1Kfc1E6R68MfA
p2066
aVmtlNpVemf0u2lIIMgqV8gw
p2067
aVx1E4U9wXGElDDXIBzp4b3w
p2068
aVVYVxxvbc1g8aH7kFCP16Bg
p2069
aVRTnNGiTz2_EtTUtHGw7IYg
p2070
aV1UXOwFKujaGNCNCijrdbsA
p2071
aVfwkidAyUXAHyXWtMxH0Wnw
p2072
aVxcmFjlhZj1Wq-oeYEd8gfQ
p2073
aVWhAYw3hYWFA647Lrf2OJNg
p2074
aVn-0JFhD3V0FfN7sVmQs5lg
p2075
aV7wSi6CwaxhR5rbphALIg5g
p2076
aVutIPtVx2gryj5cWJzb1iYg
p2077
aVFFluq9BpoG4ADhi9gI_LzQ
p2078
aV7E5cTuA0Zt3xFbKNKaU9-Q
p2079
aVx3G-ZnbYzcFK3n2-8havGw
p2080
aVCK_Hg-YIpS_WSkN6iSWu5g
p2081
aV-3wX7RLYheuW65F-IOF8KA
p2082
aVpKh4Pc96YbOg-6hBOOajAA
p2083
aVsKtmrRvPMn5GRTnHYd41CA
p2084
aV3nKW07v5Ot1WkDESYHOgJA
p2085
aVL5cvv2zsyP6AOZ1GjCP_dw
p2086
aVQGFLP49noPFZtFePsCcT4Q
p2087
aVyvATWMLzso1M0MQaqxq5Rw
p2088
aVoOayyTrVO-PbVeXXsh_JEQ
p2089
aVaBs5NRDe8q3Di7Bkreg92A
p2090
aVSo32N7bSbUd1RwhFtI6jTQ
p2091
aVbjw9ZpD3nwlvt7osANXLFg
p2092
aVBiZvuNKi0bs_YwttHhhq4w
p2093
aVDjuPUzqoUTYi4ecFxXHbZA
p2094
aVv2bkiiHE_hJbKcyvlCk0_Q
p2095
aVf5udyzZy4SX-vphL_gUcBA
p2096
aVj1ndTaipSt1ATuY3kynR0A
p2097
aVDDPwyrdmtcQVkscBtn83Ow
p2098
aVpfITP0e6VRrZiJphzxUjug
p2099
aVf3r3W8YPUcgRB41J8JE5EA
p2100
aVyvws3aMGz76FiQKIaatqqA
p2101
aVfwEPqYiyZCaB7QKY6a7h5g
p2102
aVVeBhqVUGbFbjgD08mEewyQ
p2103
aVpnDIFiXeU9tm3KtIISe64Q
p2104
aVDvpUCL8h6QVU-Cb258cCeQ
p2105
aVU6OFbI210w6QZlsCbXZZtA
p2106
aVLLZu1gmhfEgCgffnF1kZZQ
p2107
aVGpPKhPQ3mMX1_NJRLYcVrQ
p2108
aV7kZM6JmGp0K-kfMWI-Cu_w
p2109
aV3AgV08454BMMO08vqBUJRw
p2110
aVtPTQ7dOR63nSkG4bza-lEA
p2111
aVSntjekOZ1a2PoTPyMnYWTw
p2112
aVv6rb-4YhADpuD99f3RKmgg
p2113
aVk5yMFDnQrBbc82qxRr_a8g
p2114
aVM5jekfwRaw52RWpKNOkbqg
p2115
aVMfhoYW96OfXcjF4TgvxawQ
p2116
aVDZm20Z2tH25wKfyVkpmF4g
p2117
aVB_2NDDzcZELoxFbAPXwJLQ
p2118
aVfy8u9MsHxUk1h78r4AlmGg
p2119
aVkRLZKani2Te8eSNqQaz5rg
p2120
aVdHVdhgc-9Wf4246uCkuAmg
p2121
aVN7wNlo3_EaHUWHiFDyGh5g
p2122
aVe0XJXCxhA8zTHG3_dAxpeQ
p2123
aVcSwEein5F83c1VP7n69C4A
p2124
aV9WRfZHW7jYoj1JyYebA0_Q
p2125
aV9H2kQNvpuHpK3YK4-r2R0Q
p2126
aVU4wiRY7GgB_SqREcXpewoQ
p2127
aVBGLDcowP44WPtsNbrP5wtQ
p2128
aVVjZZ_TKemzg1Z4yaJM6J7w
p2129
aV2ELMxD4wdjzy9HdjwG0JzQ
p2130
aVRsUNADZTrJ5xFXVMXJC1MQ
p2131
aV6urFO5AiJCIwmJVATmWCyA
p2132
aVOA9I8dKT9Uims5rp7YFKzA
p2133
aVzHJelsCN3Iknvc-0dRoktA
p2134
aVUnGPr6ZnGe9YOSZRopnS5g
p2135
aVWzaaorVCmUTQvu4mScunNg
p2136
aVCdXusNhIEfwM2nJaNxGqNw
p2137
aVbRFynDPNsgFTEOLU2Rz7Nw
p2138
aVyuB1BSvEuPjWmBG7PIGsOA
p2139
aVQew7qNGE8ksnrZmwrOvAQg
p2140
aVUzsKmJRX6x8E1PX6ClSw1Q
p2141
aVZilAKKl3F4DqWSZPSnZfhw
p2142
aVRYkCobCYYZ2HqL6TdEqoqQ
p2143
aVyC1giQ-YlFaF2m0pgLRcow
p2144
aVZJAYnSbP6-38rKCxcNZIGg
p2145
aVw8pZYayZQY5PmywZQ83KRw
p2146
aVygv557H4_4VEqlDdPFr9Sw
p2147
aVrpJXWxl83G-b3yQ3u9rCTQ
p2148
aV5ltY6j-HCw9MVer8puq65Q
p2149
aVabsZ2-rmeH4NKo2VtWWDUQ
p2150
aVJLYqE7ITnkTupHgyOM6gvg
p2151
aVADhJUB2UfJ88aRNAIuzXlA
p2152
aVihUHxlE5erKlMaxl52fTDw
p2153
aVL-cexm4-3KDqtL6kGfjzBA
p2154
aV1K50PvXa6l5PBXZXhzkB-g
p2155
aVd2HaQ8x-3kF6DEg_tkOI7Q
p2156
aVGdXDLrMruYKSsEcb9Lvg6Q
p2157
aVicf8Tr75xv-QOnI7wZX9Xw
p2158
aVB9UvDrXUpZTNhjrV1BO0jA
p2159
aVClioP8ShELrgCyxoD4wK2w
p2160
aVPX3bqC0n1syKPulnpe9NFw
p2161
aV4qRz_FoKPwHNvPdESPa8xA
p2162
aV03vp3tenQ0aQOr0AE5j8Uw
p2163
aV5mEtUgrWR1epdj2VFzwMaA
p2164
aV-gg-WvyzPXVjmbqMIVBP4w
p2165
aV2mBin9oV_a3QnbjidmbVaA
p2166
aVPR-EPp7Wru_Igb-ir4Yh4Q
p2167
aVZHLEWpQkQ35bY4QnTCT51Q
p2168
aV4YfoQcMx1CFOZghBnzS_6g
p2169
aVofEx4LotDyaxIjWB9zbQiQ
p2170
aVs4iBNiw0iy3YZU3R7Os-pw
p2171
aVdkmeYJYEGhAV0kijSHpefA
p2172
aV2CjqjRENwrrcEPtM5fAujQ
p2173
aV46QnJ8IGQBxL0sQ9cq2f9Q
p2174
aVNgnwzZ9YLaKj0HnRKhUH6g
p2175
aVh-3HtyPSh_1270egSeak7Q
p2176
aVXZ_484uR0Q_YHf61D5RO_A
p2177
asa(dp2178
Vyelping_since
p2179
V2004-10
p2180
sVvotes
p2181
(dp2182
Vfunny
p2183
I907
sVuseful
p2184
I1445
sVcool
p2185
I727
ssVuser_id
p2186
V4U9kSBLuBDU391x6bxU-YA
p2187
sVname
p2188
VMichael
p2189
sVelite
p2190
(lp2191
I2005
aI2006
aI2007
aI2008
aI2009
aI2010
aI2011
aI2012
aI2013
aI2014
aI2015
asVtype
p2192
Vuser
p2193
sVcompliments
p2194
(dp2195
Vprofile
p2196
I9
sVcute
p2197
I23
sVfunny
p2198
I122
sVplain
p2199
I86
sVwriter
p2200
I24
sVlist
p2201
I4
sVnote
p2202
I82
sVphotos
p2203
I23
sVhot
p2204
I102
sVmore
p2205
I19
sVcool
p2206
I145
ssVfans
p2207
I93
sVaverage_stars
p2208
F3.59
sVreview_count
p2209
I442
sVfriends
p2210
(lp2211
V18kPq7GPye-YQ3LyKyAZPw
p2212
aVrpOyqD_893cqmDAtJLbdog
p2213
aVysYmC-ufbdmVEX9yAv-VEQ
p2214
aVUTS9XcT14H2ZscRIf0MYHQ
p2215
aVqL7Astun3i7qwr2IL5iowA
p2216
aVT4kuUr_iJiywOPdyM7gTHQ
p2217
aVanTtulQ9G2b3SipCEwGVHg
p2218
aVRe447krbp0VQVX3Dk4Tsog
p2219
aVXejvgD4CrkR7FeIkjwAjtQ
p2220
aVZGpDK5oT9KJJFzPyqtkihQ
p2221
aVi63u3SdbrLsP4FxiSKP0Zw
p2222
aVT7t5UdadpHua-YnmiFpcZw
p2223
aVytjCBxosVSqCOQ62c4KAxg
p2224
aVniWoSKswEbooJC_M7HMbGw
p2225
aVInmu3LQ1abGWX_feLeB-Vw
p2226
aVPuv7uq6Wx4AtL_jVpC4d3w
p2227
aVkJc9YBRwmmZ_PG0uLHuEPQ
p2228
aV9A8OuP6XwLwnNb9ov3_Ncw
p2229
aV27MmRg8LfbZXNEHkEnKSdA
p2230
aVWsPgO3ycZjRp7wFh18JdMQ
p2231
aVBn4sJUTtKFZQt0FKHF2Adw
p2232
aVuguXfIEpI65jSCH5MgUDgA
p2233
aVAZl5xknQ2QzJGUfd0V_mjQ
p2234
aVpz97SxRe1Vk-5_K6EB9OSA
p2235
aVAZ8CTtwr-4sGM2kZqF6qig
p2236
aVxRpSYEOS4MN_fnfjBPy5dw
p2237
aVuGmQ6ab4iVpWn5m61VFhkQ
p2238
aVGJYJX4SujVj3BR8v2F9PDQ
p2239
aVDglSIRnl69GUqHvVnG3QaA
p2240
aVTunkp_F1R_uFBJQTsDxD4g
p2241
aVAglQinQcLwwKalAQJdV1_w
p2242
aVB9pKfr27czBbCoAIircZdQ
p2243
aV7WGcHwBkXKRCTL2AG--3CA
p2244
aVRir-YRPPClKXDFQbc3BsVw
p2245
aVlxZSVeJz6KEBW1nlA3JKJg
p2246
aVpePGMO6EbDpbaZ7D2m6HIg
p2247
aVfNQYVPzqKIsAtGSUBftCTA
p2248
aVGZ9kx3IQe15JWrVGrAQZ8A
p2249
aV7uxXuCcpw9-mUS3OJVw8aQ
p2250
aVJhl5hM6VwLVicYluGdj1Qg
p2251
aVdvRVX54Z9f7Om51NsTRX1w
p2252
aVCvQhlr_VtwGqQBbiFOjOaw
p2253
aVOMWT-Z6OnJLcg44lCuDuhw
p2254
aVd82F_FFtowYtjGtxRySehA
p2255
aVpW91HUnVz6ssLZ4dY-ztyQ
p2256
aV5StJwPvmlJj0yMHBj1PATw
p2257
aV4hxVql33ldY_gkf3rG8_3w
p2258
aVkxkSjuIHutMTS88y1-b_Ew
p2259
aV0arQ82n4mvrc42U8KuoE6g
p2260
aVw6Vv-kldGpmvSGqXvTbAdQ
p2261
aVNZeCINmoOJ8vsQvYkZAp9w
p2262
aVQBj2AL66bEAmK3ULkrn1Gw
p2263
aVayZlWyV1M2k_UWx1dreIDg
p2264
aVmj2X5F2xh2xxPTaw2HsnGg
p2265
aVKUtzHIs-Y2Va3STDlWa0iA
p2266
aVP-lfV8cdAgEOZJkw2dJpsw
p2267
aVQ4rDqPKe1Iko7Kldj9ADBw
p2268
aVrZF3xgKdanZG1yfJdPHBJw
p2269
aVQex4D0QFujoWcVuII696EA
p2270
aVPVweBQhThUGbpExjmgYNTQ
p2271
aVARe8Nr_YehB2ubsGJhZ-hg
p2272
aVp_NNA0vg4_2E-BkUMv5vrg
p2273
aV8wQ8fugCcUEMO7lXg8yDGQ
p2274
aVTjPt2hD56jfpmtoa6kVVRg
p2275
aVYXweXU6SRVzkCLhfd7R0nA
p2276
aVdX9HM6SjZR_sBYUsr9LlKQ
p2277
aV-AWOPGwfLbC3x5Zap3IQVg
p2278
aVYKppbE7ogNmbtVrluxEF4A
p2279
aVeVV99D3EZvkuswIvIySKiw
p2280
aV_34gLEMpqCNFssOoPFeCyw
p2281
aVXKmNPbbi1KfR_6h7xxKEMQ
p2282
aVwpcoiQNbO5x0xkZwKFVUFw
p2283
aVE3C_gEhktux9Ca-Z2fmNTw
p2284
aVCiell52U4peiQcX807rSBw
p2285
aVQ1jOFM1Uu6FUrNWPvavYZQ
p2286
aVcj33h4koJXHgTmKDMjJ4Ew
p2287
aVPMgE5Yqv7QL_cTjjInyYIg
p2288
aVeCSCS17Y7Ie-_a6RmQgUJg
p2289
aVzdhIXcofp-N9WfC0tiQ5jg
p2290
aViGC1lFvv6ZLyoNPFExwulg
p2291
aVZZ6WSb99R7kVHfFW8XG6TA
p2292
aV0BxWPocgVIAzZUBQ_Nrimw
p2293
aVOK7VszKZegysGp7vn0TlIQ
p2294
aV2hBQmM99bJWBc4TLXyFCxg
p2295
aV-E6yYsngVZqIUHlX856sbw
p2296
aVqbfQRHLvZk5WSkKY0l_lMw
p2297
aVKUqpJ9eKREuvlnlitJJRYg
p2298
aVa0pG_Dl4sKb3yNps7I_hMQ
p2299
aVx7_Wyt9kjqn3itW9y0DHbA
p2300
aVdTyeHgCDwu9binCwjw7d5g
p2301
aVmv6gKJZz2ipgW5Fjxk08Tg
p2302
aV77s2qg6JOqXy69stUku6ew
p2303
aV9e0RmCcDIKcIH2uigb8-HA
p2304
aVtA2suyZG_qWIuNB_HR-YRA
p2305
aVknIbBD_rFjn4oYr3Svri6A
p2306
aVNMKADwkprjoc1nc8AuEAgg
p2307
aVeeRhnURn8ebE84S1xymc7A
p2308
aVG2cvgrKR3nqfz68Ar2BEQw
p2309
aV9VedeYzgqzq7MXXOWhbQcg
p2310
aV5T8SdBwiH0jdwatUJ7KFUg
p2311
aVeTeQp28_mMoImh9c4l2xxA
p2312
aVPlQSyQNujQkd-ewRLZye_Q
p2313
aVCA1CSw_uiapPotkJC9hXAQ
p2314
aVBbWSGazo6_fUCKxNLJ4Z2Q
p2315
aVb2GXDZPW_eppSQfDarDNHg
p2316
aVJ3rNWRLRuZJ_0xsJalIhlA
p2317
aV4vjZucSSkxBQ_LcoqaeN9g
p2318
aV56LJfBRPcubssiFRdADkqg
p2319
aVM3NlgAHXfkbmnP0GtHFgwQ
p2320
aVJMX6jmgR53yfU5NjA0kgQw
p2321
aVDrKQzBFAvxhyjLgbPSW2Qw
p2322
aV41I0iX130fvnmNVJq5d-Ug
p2323
aVTFD4dqa9BXvDbtbDx8JwuQ
p2324
aVE1FiD1I3K7YEVRd00EkPsw
p2325
aV_NvRvA8CB-Asaro1PQLEzw
p2326
aV5ANDwUyQqsRhEl7QBKRFiw
p2327
aVrQCNS1qKNnzTvyuNPFYWHA
p2328
aVat9rwt_tidIDDHfFeLFF8w
p2329
aVktslDnGtVnfb38dZ9vrKLg
p2330
aVd4TlTt6Q2JT5qNUfVxHY3g
p2331
aVn7vjwXPlfG9kmC89IhFiWw
p2332
aVErsBXW-E-mWNjMc62TPQNw
p2333
aV6uM5lx0DCX4ctQlebtxraw
p2334
aVpNnguaxvDGA-gwoOJ5_WDQ
p2335
aVHc6agWZ9jGCxsPAqQwlf2w
p2336
aVjdLoHu-K6uOELCo4BD7RLg
p2337
aVpJppmQyW74ejj8xCa2SHuA
p2338
aVKKmpVu4m8VwjnPaAqxTufg
p2339
aVT_0yM-RG8I8iqbkeFuh7rg
p2340
aV1T7sS2uH8MwodMiosz4wkg
p2341
aVwiE8owjhxXYpOxCcYKhbiA
p2342
aV5h_P5sVbGxtw9ldH4sWZkw
p2343
aV3uPesra2sEBRrO8kDwO1qA
p2344
aVHm6495EXdwjKqhzvhLgsyg
p2345
aV5Szwd1CSepRXwAFH12nPzQ
p2346
aVGoTkP8VOSk6rqGXS3uQ-bQ
p2347
aV8S-UrKLKRsJhv6mfpCV7lQ
p2348
aVZH6rqgDyfVEb5yZxRD63-A
p2349
aVq15hfv2bSgK4lc4VIag12Q
p2350
aVZR232ZiiDJ3j3dCyMygA2w
p2351
aVN_BWo6I2ufgV2kltSWp_Zw
p2352
aVAaZdXn0I6F5bdIVwGpxdDA
p2353
aVW23_DxXIIlmZlZzAVJ_Qxw
p2354
aVHBFtzjRarXxDH8xZRSNsPA
p2355
aVDVANCbItlJLt3Eqi7CaciQ
p2356
aVtrO2D3DkpL0B0Uk7rokUFw
p2357
aVnb2wZQ-DL7Bn72N_h9NMXw
p2358
aV6wg8_QfPuG0ROGYe2uwbRA
p2359
aVkXuA2ffm0Uw46U3O0mcmtQ
p2360
aVn1GSQ7VT9sTL5MlCWolbNw
p2361
aVDB0OfzpdQQw-Q-8udINCSQ
p2362
aVXpD6HNw4LoGDBCGkMqxrnw
p2363
aVWgnmE0dd3lB71lRP_OdyBw
p2364
aVF9T6m1YdRFreyKDufcyoOQ
p2365
aV1UJbOl-jKNIUjroeC4xWxg
p2366
aVACLuEsNHV7lfq1O7CHuFaA
p2367
aVT4yM00HmwlhJ7L89rMapYA
p2368
aV0ypTVVwcyusnxx4Zbws_bg
p2369
aV3AIZkvXQaThvVODrL8jEeA
p2370
aVqO63u4FzJDDdF15GwJRF-Q
p2371
aV9LZP7Ll7N9zkuWfA5DUAYw
p2372
aVSbM1m5nejHDD1pJePsar9g
p2373
aVpU4_aolQs3bT44K1kEdaZg
p2374
aVvrU_kYfmp0Mmh2S5-FY-sg
p2375
aV_HcZLN9uoS8urIDGyzew8g
p2376
aV-Ll2lk5MuVsJIBSBBnM3Tg
p2377
aVIZGlDf3HIx4yc5f2KH3Pmw
p2378
aVyolQ2kfKG7N67GWalR9zug
p2379
aV891zUI3sipirydrVIIcp-Q
p2380
aVHQJ_2pzqz9DuPHNpTOmrWQ
p2381
aVfBKkEoQKAQb29k-zjonMzQ
p2382
aVnKoB5cWZHXYUIUcQsUDogA
p2383
aV8E0DGec8LNn6oDmPHmj-mg
p2384
aV3utEqyNzFcxH8E8pm7ByPA
p2385
aV14Um9_StQp_eDgRo02gbiQ
p2386
aVfczQCSmaWF78toLEmb0Zsw
p2387
aVUS2UWum3MaQLtFGiONNIvA
p2388
aVRTwuP9OtmJvMm91wuzxGSQ
p2389
aV6wveyznYgxA0sPKEfe4wOQ
p2390
aV2IxwnHgk1ykodqi_RRHB7w
p2391
aVcP8oFyfDeTt-pmPRZyT71A
p2392
aVzunSYtFT1h20xnQH_mTsZw
p2393
aVpSOpnpuqHaT0gM9aizQsmw
p2394
aV5YySKNsPmTeG69nT-dS6Hg
p2395
aVS8ZY1HEDoECqKrIUY34JOg
p2396
aVvPmE7rdxwYCYwM6MOrjCow
p2397
aVnQVJ_9f7xVtlozrFu4xmqg
p2398
aV3WsDt1vFkLyCQqb_qUtFVw
p2399
aVJT5kM6wRwh7cNt8IAuX_sw
p2400
aVlLZfboZB3B0LquJNR6GmkA
p2401
aVf5gM-S0atZaG7tsW1pi2NA
p2402
aVUOJ0EUsZfO6fyyMmptTnIg
p2403
aVr7V9Nhes-Eg-lH0cqfpFFw
p2404
aVuEc8SiC3OdjEdZhlZ5s6-w
p2405
aVsdH7B1S-PSngGY5Hi44OqQ
p2406
aVDPwh-CgEIleGiZIe0Wqo6g
p2407
aVy0_KZGohO4uPYg8cDpRy3g
p2408
aVnTrJJp12yUPvz0lFeFbz_Q
p2409
aVtsF6LWmcbs51gG7zH-h-UA
p2410
aVaiOyUUr9ShJFGyOvjygQwQ
p2411
aV2m3lE8p8T2nFRDxIUaRXew
p2412
aVsnd45oedwXxF9tsHUX_6dg
p2413
aVYwksq3KHKmTOhbTkN6-HGw
p2414
aVkYi1-z_eErTLozHG9gBYGw
p2415
aV-8ES3xZyJuBUMmFNyzxKgA
p2416
aVuE7jv7qItkIMCCItQRSIbQ
p2417
aV_A_2A-bjADJTKBoWd_B5qg
p2418
aV7zpDhrRZRTGCkAh3SHbEww
p2419
aVNSg7k2UFt_HqM2mvsw-n0w
p2420
aVEcFydWvO9D9jCBUgLSMzKA
p2421
aVPmLa7Pu9Ba32fhvCOLOr5A
p2422
aVpYsYs7eQ9SWqAaQS0xoRLA
p2423
aVTv3CgVoXOfRaI6WRMl7-Ag
p2424
aV2t9wSXQ3Luadi_eW7O6Tag
p2425
aVyfQwWLYtqwHKiky1hiTBew
p2426
aVxm_DzmDnhtNyNnnxhSDncw
p2427
aVIe7tbGC1cG2OLfAaNqs62A
p2428
aV6SxnRYFR3GUzGREKSttxJg
p2429
aViDs0mr1LAb7m3K2L-KcAAA
p2430
aVQO3DkQtPKgZu6G4MXPmnYQ
p2431
aVgBID8jIwsQIE5W_Zr0Vhjg
p2432
aVasVOf6vmcEUQGTfcVCPH0Q
p2433
aVLbgQK5B_5IkN77FgRJHhrg
p2434
aV4mtCpNizYNdXuJk5IpP5JA
p2435
aV0IAOkW3KD1Dsx2hnwb0CSA
p2436
aV1l3zmkF9trBTnc8FivInNA
p2437
aVu00EOkApqyRP9YLlI90TKA
p2438
aVfG5DvscEidPKEnYfZUoILg
p2439
aVw7YkAgJ2t5Q9zkfq58tpJg
p2440
aVAP6udBIStvWLY0T5rS_24A
p2441
aVV0WOxlZrIhBjcvlpszAgXg
p2442
aVG_PCzMHcOLoMyyEsxW1DFQ
p2443
aVbKpZgPTf1lCroPMhqFknUw
p2444
aVwwdRyRFoB-zBjXmJ5ClKrg
p2445
aV9PN7tR-83oe2On9kefp6Lg
p2446
aVgSXgEuv2wf4QBwzu8ySbig
p2447
aVAZuSSh8xMwLtoapGa02WZQ
p2448
aVnoekNAqLa2L3az5_bnb3zA
p2449
aVh_TlJAgBfSXG4Yw7rkC1Kg
p2450
aVkYgVe9gg82XChmv2a08mTg
p2451
aVXOe-I25-W_FnbYfQyafylw
p2452
aV_46Sn7OmqF-odwJgfyPESw
p2453
aVWSsamvkk0gJSif7Ll2iYxA
p2454
aVnfTE2AZ1q59L9bVixOPVZQ
p2455
aV9RM5yVskR-iLs-jn7MZJ5w
p2456
aVp2UKiLd0jVx17b4nVNOeKg
p2457
aVeOBvN22GfIAUETEthSvNVQ
p2458
aVLGg1MNLAYWmHfXzp6hC4ng
p2459
aVY9FaiGL2Bz_ngpRODGkHMQ
p2460
aVN7gupqGZWhTYlTr_wuMI1Q
p2461
aVEjiIzR2dCE_FSpyIdvXOjQ
p2462
aVuI1HFHjEQrtR_vqMJTXmsQ
p2463
aVw1y7rcJAokqFyySEhd4r_A
p2464
aV2uk4R74YwMeBQFFnWj5HQQ
p2465
aVR3O_eIgfVjrdaorHGCGIKA
p2466
aVdk5zOa6PtED2eAMExoRB3Q
p2467
aVmdn8D7A4nGsPD0hYu4QhFQ
p2468
aVuWak0g1TXVr8axztY8Bdkw
p2469
aVPUMROYfbVgKypcfJNxs1mw
p2470
aVJyE-Edng9d2lODLqyeP_kQ
p2471
aV84X5uyyQmGhZrq9z_IQg9g
p2472
aV9pwl6Vkk3DPEA58YjYCRxA
p2473
aVvP9anyDpJqS_9LPN-D8vHA
p2474
aVlXhOAP6ncg9ENgA9ln_ijA
p2475
aVxm34oeXnAFtWSi0katruUQ
p2476
aVIXg8pYHhtP-Y5sdhZhp1og
p2477
aV1Qs8pJAnTEdHv0mTcKny5Q
p2478
aVL_6r97c0UhLVZXIzDn8ykA
p2479
aVFDPjfyyHNfy9tqyxo27QeQ
p2480
aV0r9yLQkxwcdutak6uKiCaQ
p2481
aVF1oGgK3NtTYnyRMxupiiuA
p2482
aVc45AFDoQz5OJcZISlZ1y0A
p2483
aVZPolhetd6Od5_VhXPbFIxw
p2484
aVAgARllvBE2wIopbJSuSXPg
p2485
aVs9I4KMcrHKki44g_eTrYqQ
p2486
aVg3z_RHT1oBH8e8vKcAUhTQ
p2487
aVNzP9OoNP8vBMRUSs0UXBNw
p2488
aVa8uYsgs3va-qM2AUiWfpvA
p2489
aVa2yYBmJxshUSJyDOqio5cg
p2490
aVA4PEFU6xorg3Gr8MssKi-Q
p2491
aVXlYbPATxPQRJR1FOZ81yog
p2492
aVtiPH-oA8Upuls0__lZ6XqQ
p2493
aVj0alUTJfDImNrDkPvoceAA
p2494
aVJmBtJktmqmhbYX-g1mZslA
p2495
aV_-W0caBilETBPJIlIqbKSQ
p2496
aVlpZtfD-vCqUER1yGKEvUPw
p2497
aVNduGDKc6hLcb1S6OtW62XQ
p2498
aVwx12_24dFiL1Pc0H_PygLw
p2499
aV4ksgtLakWXrD66G-M1bSgQ
p2500
aVh-YmHaA_E_blfH1VzEHUCQ
p2501
aVGSVSgA4OqKGZXQC1Si5q6A
p2502
aV5eDUpeE5N9xWfM5DGw-n-g
p2503
aVv3nPv8G4dV6y-LNesb6Mug
p2504
aVC5YT9IID8c-x20EXsxHFXQ
p2505
aV3kBgnLni8fHnMarkBntd5w
p2506
aV6rs7VCPIFNsM1bx60qKqvw
p2507
aV-Do-a2vqE9EoXtnV-TZEBg
p2508
aVBV8c4QZEzvPWA00ZqJp-jQ
p2509
aVQWkXgWM7jjIruQ4Q4wzZWg
p2510
aVZQ641mQnyxipR-WPCQ0LlQ
p2511
aV1D5xuAHi9TXN-G5h9tPntg
p2512
aV_AJekjxvLJlt7i9jXGvumA
p2513
aVu4h-YRTGy8yf3ep-8vUK3w
p2514
aVCxqXgJ672n08peXURbyUAw
p2515
aVXSpOTOG892AN3yNyRnJWNg
p2516
aVydBVKz-bTrNYTjDezPZnug
p2517
aVJbAeIYc89Sk8SWmrBCJs9g
p2518
aVDXbU7ESVIiCgU7QsmU-EaA
p2519
aV23ih9Fdu4v2KpBE1JDoVJw
p2520
aVIT0sp0lM1ETIPQO1Z0c4oQ
p2521
aVv4IuHLQsLuJ5vVve6atgzQ
p2522
aVL0Xrx4zdjPtPDcLcE0dJMg
p2523
aVyJt2gQhLh5anhgqAS4xtNQ
p2524
aVkBnrS4xgY4pI-VxdpNSVSw
p2525
aVANetBXp0CdITDGhp17huGQ
p2526
aV_ECFJ57glHjeRYUlGd8QVw
p2527
aVIHt7toZZ4RlGvvz7aaKI6A
p2528
aVZ4Kn84VryzeJK-cGOfm6Pg
p2529
aVM1EQRRC91pofvyUucOEmsw
p2530
aViZkGpLxDooIvqj96CS9BNg
p2531
aV43WQN_FXtzMDYHUqMeaoTA
p2532
aVuuy_NVUeF1Kfc1E6R68MfA
p2533
aVYR5pKY_7M1oOiLOejQNvDg
p2534
aVsmeyvZJSSEfAOHzUiPwmWQ
p2535
aVn-0JFhD3V0FfN7sVmQs5lg
p2536
aVx3G-ZnbYzcFK3n2-8havGw
p2537
aVqtaXru23k-37b5L5jLDJOQ
p2538
aV3nKW07v5Ot1WkDESYHOgJA
p2539
aVf5udyzZy4SX-vphL_gUcBA
p2540
aVcMS156ro5OotmLKl8AdiRw
p2541
aVGpPKhPQ3mMX1_NJRLYcVrQ
p2542
aVB_2NDDzcZELoxFbAPXwJLQ
p2543
aVAE0RkRM6IfAPCmTGmqFcHg
p2544
aVIJKRrBlAU0M-j3XODBJGmg
p2545
aV9CBXjGfoEYX2pdoOqgsquw
p2546
aVihUHxlE5erKlMaxl52fTDw
p2547
aVwYPTmPe95linxD0cV0WaVQ
p2548
aViEjYwzHPOaiwQ-GZUfHYnA
p2549
aVcXVG7LIKO7EvMgYYPE0EZg
p2550
aVjvsDq5JqwkTymRIZXWM5Rg
p2551
aV9pJyJPZd2AgXEeHc3Ngq4Q
p2552
aVK7Cqwj7RF2wITGO7y_sWFQ
p2553
aVZKopTiSE8jAfoKlpbxY9dg
p2554
aVfmMWiNj3y6XT7W2TnSiAKg
p2555
aVW3VwuJNsIcDp3iTM2XnoNw
p2556
aVM1MKXD6CcaFO5mndI_h_Vg
p2557
aVW2E7zkncKxziTQ6ahYfwlw
p2558
aVAixTle98ZDVP2BjqTsVNUg
p2559
aVgo3_RCCCZBDTL_NPiWxVqA
p2560
aV9wgA-ExyfuqA_r_pDrcONg
p2561
aVh-3HtyPSh_1270egSeak7Q
p2562
aVIlTT1sEls646CQEX9Wbn2Q
p2563
aVXZ_484uR0Q_YHf61D5RO_A
p2564
aVj88UsO18l3jeC_aOYTQewQ
p2565
asa(dp2566
Vyelping_since
p2567
V2004-10
p2568
sVvotes
p2569
(dp2570
Vfunny
p2571
I12453
sVuseful
p2572
I16940
sVcool
p2573
I16174
ssVuser_id
p2574
V8J4IIYcqBlFch8T90N923A
p2575
sVname
p2576
VJoan
p2577
sVelite
p2578
(lp2579
I2005
aI2006
aI2007
aI2008
aI2009
aI2010
aI2011
aI2012
aI2013
aI2014
aI2015
asVtype
p2580
Vuser
p2581
sVcompliments
p2582
(dp2583
Vprofile
p2584
I220
sVcute
p2585
I274
sVfunny
p2586
I1462
sVplain
p2587
I3902
sVwriter
p2588
I1229
sVlist
p2589
I89
sVnote
p2590
I1009
sVphotos
p2591
I1854
sVhot
p2592
I2599
sVcool
p2593
I3420
sVmore
p2594
I218
ssVfans
p2595
I777
sVaverage_stars
p2596
F4.35
sVreview_count
p2597
I1589
sVfriends
p2598
(lp2599
V18kPq7GPye-YQ3LyKyAZPw
p2600
aVrpOyqD_893cqmDAtJLbdog
p2601
aVi63u3SdbrLsP4FxiSKP0Zw
p2602
aVT7t5UdadpHua-YnmiFpcZw
p2603
aVpnrGw4ciBXJ6U5QB2m0F5g
p2604
aVytjCBxosVSqCOQ62c4KAxg
p2605
aVr5uiIxwJ-I-oHBkNY2Ha3Q
p2606
aV-2mrMu6jizisSqs_N8UvKw
p2607
aVWsPgO3ycZjRp7wFh18JdMQ
p2608
aVBn4sJUTtKFZQt0FKHF2Adw
p2609
aVaIw8N_ec97tsBWU6hfydYw
p2610
aVpz97SxRe1Vk-5_K6EB9OSA
p2611
aVkNmLc3_TqfwJQm0ixG7Cgw
p2612
aVuGmQ6ab4iVpWn5m61VFhkQ
p2613
aVGJYJX4SujVj3BR8v2F9PDQ
p2614
aVDglSIRnl69GUqHvVnG3QaA
p2615
aVtj200wDuTt8PBv1FdM0KDg
p2616
aV4lc_H2Cf7CO0tCgyA3aSVQ
p2617
aV8RyGwUAduI63bl6WWHJ1jw
p2618
aVB9pKfr27czBbCoAIircZdQ
p2619
aVORXFUXpvHloPYVyQ4C5oqA
p2620
aVRir-YRPPClKXDFQbc3BsVw
p2621
aVG4LfUOgAglHfZLILESSb0w
p2622
aVmA-JeZ5IaTQfKzNAeCYUoQ
p2623
aVlxZSVeJz6KEBW1nlA3JKJg
p2624
aVpePGMO6EbDpbaZ7D2m6HIg
p2625
aVl8T7Xsobadnm1Cp1MxBaSg
p2626
aV8DqIWXsKXOipfduYEfFpNw
p2627
aV7uxXuCcpw9-mUS3OJVw8aQ
p2628
aVdvRVX54Z9f7Om51NsTRX1w
p2629
aVHANb8-8InWnju-XzBQQSBw
p2630
aVCvQhlr_VtwGqQBbiFOjOaw
p2631
aVmzL87ERGHol0bs1n41sgug
p2632
aVOMWT-Z6OnJLcg44lCuDuhw
p2633
aVpW91HUnVz6ssLZ4dY-ztyQ
p2634
aVW_Cy_GTwJGWfyg2_W6S6jg
p2635
aV4hxVql33ldY_gkf3rG8_3w
p2636
aV9V14_mnEi28kNnN_aVhuSA
p2637
aVkxkSjuIHutMTS88y1-b_Ew
p2638
aVw6Vv-kldGpmvSGqXvTbAdQ
p2639
aVBvh3IHeMzSPnJAe5QlBsSw
p2640
aV_Rleq48cZwvLSeBubxKA9w
p2641
aVJg-PXIyBit5Q7QnbEK0vVA
p2642
aVrvL84mGTcTeS4BvU0pzUaw
p2643
aVpHgMrItaOvWsuGVkbxpOQg
p2644
aVzojEUtESP5mH7t4WcPzVKw
p2645
aVUfIGEihlGCpKLD-SkzZBtg
p2646
aVP-lfV8cdAgEOZJkw2dJpsw
p2647
aVakRkV6IFvpIAhsEOysIXog
p2648
aVZvBA5dEJYObIiFB7GPzKFQ
p2649
aV8M7I2-s5nQ8LSkuCvN0Xqg
p2650
aVmUuNvdQXIYe_pIaXYWUZhw
p2651
aVARe8Nr_YehB2ubsGJhZ-hg
p2652
aV-ETxy7f37BBQXhw5zJfkrQ
p2653
aVBZH7CxxSAysbSpYLIflMFQ
p2654
aVWwl_HlxMyfnPhH4iKbzdOA
p2655
aVTjPt2hD56jfpmtoa6kVVRg
p2656
aVYKppbE7ogNmbtVrluxEF4A
p2657
aVD7uXj1_0pE_Fa2YeLkOkyw
p2658
aVeVV99D3EZvkuswIvIySKiw
p2659
aVRCsrrVe855-AT9NRJCx_zA
p2660
aVgWcz4QFTW76q8VtpIlZEHQ
p2661
aVRRs36fV1eWCkA3kJLDab_A
p2662
aV_34gLEMpqCNFssOoPFeCyw
p2663
aVE3C_gEhktux9Ca-Z2fmNTw
p2664
aVClaGLOr72DPJlQhRc9HHyQ
p2665
aVYX-O9N2rg1DNH-IbyD1GLw
p2666
aVywIwGpYuR9cwCUX5Roz9gQ
p2667
aVcC2_XT0orpvPyDSXLNFdXw
p2668
aVTXlX1QtA0vJS5mNj_KVWeA
p2669
aV_sQEh0xdCZqnCkTo4ih2NQ
p2670
aV6oZWcj9XM9xLxxCog76nBw
p2671
aVOwcvQW8hbLjcU8eW-1xCIw
p2672
aVzg_PnmU03up7WbPBiUfagw
p2673
aVy0SRKlzVuvj-mbQtbsWx-A
p2674
aVBuaNITlWZwJskEhBbz-H6w
p2675
aVpwqKts1RgtkadnS_L4oSVA
p2676
aVqbfQRHLvZk5WSkKY0l_lMw
p2677
aVU-x9Hx392dea8YWdgYFiLA
p2678
aVAYQKc-vHCAKiJ0NaijAOkA
p2679
aVMMCiQSRLdhyUzkHyksST_w
p2680
aVy2TOU8CqRLZEa_pxXYaVFg
p2681
aV8qoEnuFvMAQWv7qmhKyulw
p2682
aVNRfrP-2TFabXvQM8v9W9mw
p2683
aVjcI3dOg54T3MEbyKKwvgiQ
p2684
aVyJm4kh4wrdc-a7KuErfqxQ
p2685
aVOuus3lC3Xk3YRGx4ptd_4A
p2686
aVVJjlRu2Hg2VgaN1P2GVdbA
p2687
aVQT1X8uwNLgKq-ODIiHGlBg
p2688
aVSCw9iirijegjhSfK26ZheQ
p2689
aVOMB8Y_DOaB21vCXa-cruwg
p2690
aVzb60zgWOFnmW_a6PwibzUg
p2691
aV0OTPVoLZU5j9APsyyH3QRA
p2692
aVfpfXXoQ74DHFvS_pZMRhvA
p2693
aVfaoGu7ngJ2t4I9DO5cxG_w
p2694
aVUOVyiVOFX_-G510MH-V7IA
p2695
aV8L4PNrBPbf0yxPZsGUnalw
p2696
aVvr9hNYXmjk_MqeRCBy4v-A
p2697
aV0DCJgGyavl-M-gNC9GcD3w
p2698
aVpfNUePA0t25FNpeBQw05ZA
p2699
aVZKcurBEb--tGFYhInRlLWw
p2700
aV_0ldnpmfG5sMwd3jqZDM2w
p2701
aVjxl3BCNUr0zX3iKyH_1E8A
p2702
aVjy0DFl1mEscUXTonv3YXmA
p2703
aVuePTLkka-CXvuoIk1d1Ucw
p2704
aVJjzftJhv6bGBQ5yaMCxbZA
p2705
aVb2GXDZPW_eppSQfDarDNHg
p2706
aVRtEjwp9KF1_inHdyeYDmZA
p2707
aV7DzZxUDqZ0AlLftfBB4_6A
p2708
aVJ3rNWRLRuZJ_0xsJalIhlA
p2709
aVAGHesuIAE2hJ4yPGZTzO0g
p2710
aVm8-HOEy78J_RtyKKa9qoVw
p2711
aV6vkkA1NUh-L1kiDh_h3dAg
p2712
aVNUeLSLukiPPCSK6EVdUo_Q
p2713
aVcipuRB7jXtOo6sqQTh8H3Q
p2714
aVVK05wz4dtLAXzsXdkGJmOg
p2715
aV0oqKh6x77VBoX2kS8pbFjQ
p2716
aVB8LCDJM-amBdcjkDnhJqhw
p2717
aV94N07GeXPUyC8baIz0l3UA
p2718
aVM3NlgAHXfkbmnP0GtHFgwQ
p2719
aVnEpc45rN9r2Sl6rT73-TKg
p2720
aVBKhJG1Zht-cU1JytNnIXDg
p2721
aVDrKQzBFAvxhyjLgbPSW2Qw
p2722
aVAt4WAM3e3xdhx832o-W-Yw
p2723
aVDH3X4Qj14nIsdeHMFf4xSw
p2724
aVooZ7TV6IuxuqbFgnqaoSsQ
p2725
aVR-2GWjkuiCyFojQZ5cmvIw
p2726
aVJWWSI2XqTyeWNmCP2pYByQ
p2727
aVSwqhvXTAVUrGMxQBlyn8vQ
p2728
aVG-BwPDUw9zeAMxNgw4gVaA
p2729
aVHHij7LRNfzWru9TKEIsWgw
p2730
aVNcSn54aNwLZAsxkKLpwqaA
p2731
aV8L1p_zlmAB_uWyaW0QTaCg
p2732
aVs7ZSag-bHo0C4fSBDJeBDw
p2733
aV4RFxVkcxUY98k-Rk9E35cQ
p2734
aVluicBR7G1s9lnT69IQNQwg
p2735
aVgf6DNSPqsYQFOp18nuTF6Q
p2736
aV1IR9ITHjLbSIHm2KzkWxHg
p2737
aVT5XX5oIXMMp8a__g8294iA
p2738
aVKMGF6KAnPRoOTFVXBy9jtQ
p2739
aVrQCNS1qKNnzTvyuNPFYWHA
p2740
aVPFtbOIt89VdJB6OLLNaEGw
p2741
aV1ksXIq1WX4lwBPPNIzVSMA
p2742
aVRHbsUP8d9SigIs6RUpwauw
p2743
aVm6PdLs4FnQn4MHFd7i_wsg
p2744
aVat9rwt_tidIDDHfFeLFF8w
p2745
aV-BhjP7Ll-zEtXvJJQ1ZKvA
p2746
aV0IDpNu-syicmK0U06dbijA
p2747
aVWJQp0HmIW0lgA5Sowx3Xjw
p2748
aVk_o0iW-_jynR0ypdwdJkFQ
p2749
aVXnCRDtr6UD_g5I1FXv2qMg
p2750
aV9eTcpCXfHXiLY0U5JzYpgA
p2751
aVLZV6lEpvz0mUrJ01i7UcOQ
p2752
aV4_n7yRXR98qO-buurZsa1Q
p2753
aVfro3ymS5o8MlUcZDBsLx-g
p2754
aVzTNKshPQajBU0PEd87UJcg
p2755
aVR7-OHW_M_V4lYGbIT2hetQ
p2756
aVNS7kSqHMXNtXIt0RG5iMrA
p2757
aVEV7z_CQqVpczdyFA4LTMIQ
p2758
aVwRD-UOmN5K0dlX5aMjm5gQ
p2759
aVHfPJGE_ZgFmP7mU_Kh2CwQ
p2760
aVSC5DH6fiHuiP_C7_8M8DSg
p2761
aV9LUZil3kYErxhH4fQyfZzA
p2762
aVB0LyEx_dntI4rkcL6n5MXQ
p2763
aVj0Ldm1Uc2ib70NAcBH8Lyg
p2764
aVFQTL2l8SqT4EDLb4XMv39Q
p2765
aVJ3W9qboYa8reEqlPoohIzQ
p2766
aVCG9tX6TqwLyBoa3Urbp6Yg
p2767
aVh-OXej0xrwXr9u03qs8lig
p2768
aVsOnj2ToEH_q-pajhmHsI4w
p2769
aV_txZU67BrhrrNZ89YFvLtQ
p2770
aVR9FFFqYOUmvWjaHqODfzyw
p2771
aVpJppmQyW74ejj8xCa2SHuA
p2772
aV5MvIg39L6FmBrGZG5C2jjA
p2773
aVhzaqnSxfRYv_Wbp6CMKtQw
p2774
aVVJKcPg8BIa41FNcoBftQrQ
p2775
aVzsE6mMtcWtnhsRgNVcGX0Q
p2776
aV0QwV8PJk9PJDFaMNw1Fcsw
p2777
aV1T7sS2uH8MwodMiosz4wkg
p2778
aVqVZS7phKH6f_X0kreY5YdA
p2779
aVqnnieCU8EXZyojWuKg1iVQ
p2780
aVoVyzuAT57u1Jz4ORFTterw
p2781
aVHsKPpfcATrQ5Bb0ab9VQNg
p2782
aVCjfTHB3Gtnk7r5hYsiLXnQ
p2783
aVCYnro8XDDPnrre31YrJVCA
p2784
aVBzL8G0LnDQ-aUuaDRZ2uJQ
p2785
aV9Gdf-XAqgVOmFVCusVe0VA
p2786
aVSMHDizdKuRSXVjL2lsHlTQ
p2787
aV-T4sYhtArnj2XNj7xoEeiQ
p2788
aVPNX0CHe3sofOzzpZQyk2wQ
p2789
aVE7tozhm23vJSKBfozHWEMQ
p2790
aVmtXpLlfqCCityXyjFyQXqA
p2791
aVYwcacxA7WCB9fryDHDxF8w
p2792
aVAonCa5s2nOfNfZYecxgIDA
p2793
aVn4QTIJq0uXVcEls_No9DyQ
p2794
aV6wg8_QfPuG0ROGYe2uwbRA
p2795
aVp9y5qcFZ6YRRQ9PnFcVn-g
p2796
aVQ-aRdn8ELjHqqJCK3_ScSw
p2797
aVNpylBHheMIB0N4yITq3u7Q
p2798
aVzi0kxtr5gq0Flg7jYdIlMA
p2799
aVqFHOh1DMqJ2Zb_pvqR1Muw
p2800
aVVhqJsub--YhdoXLNowz9XQ
p2801
aVmfuEk8VQxFDmtJRJ4eH21w
p2802
aV3mQt92SptSwlojaLDu_DOQ
p2803
aVL-nxG4f2MLZNCAsApEl5Xw
p2804
aVoACHN7K33raNd4zAKn8ZBg
p2805
aVX4myQJbeelTkszOrxiBqnA
p2806
aVDzVKlwlnqwSSiGGzLmAp_g
p2807
aVfmWyb9q_6MTuun75J-tr1A
p2808
aVh2VvAa1wXQGUsmskPlSzgg
p2809
aVUt4KWM8SOfo9VnFIQcibdg
p2810
aV8BWCWYQc7IKvyuURroU8vQ
p2811
aVvpOcRjnY4CqXXk03wSMelg
p2812
aVpTZ-cCPn2HAXb6gPpFEunQ
p2813
aVDB0OfzpdQQw-Q-8udINCSQ
p2814
aV__AGxxnesE_oWHxSztso1w
p2815
aVWifxG5NtC0VAGlUo8StrBg
p2816
aVsYj8Pdzn6eEr4JiNbqmXMw
p2817
aVzw-bIcZP4_VEi3UetomDeg
p2818
aVM8gsaPx6eTohrPBDS-kSIQ
p2819
aVn8RNh70rEbhUw3HeQYr4vQ
p2820
aVbHR02xV_E_cZc2PSMtLrLg
p2821
aVszLodDvllHAwYqkUVopqHA
p2822
aVv-nyx_LMf7BrkIeofX-ClQ
p2823
aVZAZnD2Nw6OCiIWTJa8v-8Q
p2824
aVglU9ydZoOojPsN2b7kUMBA
p2825
aVAixLPxra_4HirfchjPkiWA
p2826
aV7zSppEZd2C6ASpNeBebxAA
p2827
aVxOK3i0wgmkpGu54BuIcwQA
p2828
aVF9T6m1YdRFreyKDufcyoOQ
p2829
aVUcGdi7H_1sVqap4jvCVwqQ
p2830
aV-cscgA-lVPipPwEX4RmcgQ
p2831
aVkGgAARL2UmvCcTRfiscjug
p2832
aVpWhMf2F1xuejOSWCrqhUxA
p2833
aVDVZf6SX19FVnzPyJeZ9-eg
p2834
aVk-7B140R3vwGwZrw6tfxvA
p2835
aVuGsL74xWb-vDbXCn8u1LkA
p2836
aVPmJkdDxGv3zZ2WjJ9WEPrg
p2837
aVe-6kuk79pqrF297o7KJtKw
p2838
aVzBbHAGzZZtEadtft6QOuTw
p2839
aVbIoQSV1qX0BxVh4RyPmN5A
p2840
aV2rOl8Io_Azq0OanJkyGd8g
p2841
aV8zz0lDDiJMRekT098q18yQ
p2842
aVzhV2H02tC04MGbgch5sqNw
p2843
aVc_61dliTkbLKfXcyfcxPBA
p2844
aVuQi7cxIRoAZ9x39aNJC1fQ
p2845
aVrWt8vfiJtiqi2N26vtwlQA
p2846
aVexZB-WQpHI2woqzHLdyE1Q
p2847
aV0ZtoCu_CtmdvxewmK8WJ6g
p2848
aVP1qwZrslRv9KS9vPJNXe4g
p2849
aVqLXN7ia1PJ8xgAP6JODBIg
p2850
aVP-kkhXZpL_hUN8Zu3t7BDQ
p2851
aV3ME7i3sP1hzPHXprCeOVJw
p2852
aVjqiDWycSAWIhSHIfN_PjAw
p2853
aVJ5ptmoQJiHzm-XqyNW5d-A
p2854
aVKJhNPcGht6xK9jAWZ3kl4Q
p2855
aV2MisyqSvcpNQbyGT6GnR4w
p2856
aVgLkQlGtokKIyWyNG040JvA
p2857
aVaEy1jCs0Z2qf9NOybRw2qg
p2858
aVygronrTGPlQHxUn8NCmaIw
p2859
aVCipr4epkMjRglurmLLYMRw
p2860
aViDAoMZNiJG5W45mx7PTIpQ
p2861
aVzHzi5m1a_2PsNZULMNy4HQ
p2862
aV2k7pNOvTlild8tlK9b9b5Q
p2863
aVcsRWBxH9y0Ek6VhC8Iobbg
p2864
aVqWV1sSKn53BmghpP56IIfA
p2865
aVNgS8s99qQIiHOszKd-m87g
p2866
aVEoEWaYegmzRUfteFycop9Q
p2867
aV9eQkqRBSJvpedQNz_hhY3A
p2868
aVrjjbWUcAC0RyYcMILHvU7w
p2869
aV9IEVc_1NCzHVMN5FSNE05w
p2870
aVo1XauRg-HoSe4b3UOWgg5g
p2871
aVpU4_aolQs3bT44K1kEdaZg
p2872
aVbKVTk78rY04fUbgdNcHDwg
p2873
aV0cOr6YX61FwOkVM1uECbvA
p2874
aVZJ-HbsXL91pbj8M1sPCx5g
p2875
aVhFrGxQr2QP0FHFHDapGn2Q
p2876
aVn01pLYcrNOgY8Bdm3Bc5fQ
p2877
aVJamU8W3AjMIqoQIkFsHaXw
p2878
aVjqjGDP4ZSH481EMa4h64KQ
p2879
aVLr52Hn6qgw9Pn8jumDmniw
p2880
aVrtzz0qY8M90QwNjrmvsMNQ
p2881
aVxcPyzdHUi5YHvKRFvync-w
p2882
aVSAPz30NHFJ95SBlvz5cTqw
p2883
aV0ZY6rM7Fm9AbHfG40HCLfw
p2884
aVMc9wRZ2rkzM4IhGQ1PRrOw
p2885
aVFuEecQz7BZJhJFOk3DO6gw
p2886
aV3P9Wnn0Z9TSe08bA8IIh_A
p2887
aV7R7BBD1KxhKHiiQ3OPI1Xw
p2888
aVOhqXsFeqCVVnxbWuZlnGvg
p2889
aVoPG5VgtbV0DaDqYjBIgyXw
p2890
aVzpXplaTZOxXuzJytEC4KLQ
p2891
aV6onn2jjYCndvXWRf8W9ydA
p2892
aVkuEKOd7JEnDun43SUsjJ7w
p2893
aV2rlBbFPHyZjXSFSE8r551w
p2894
aV7m4-lgi0etB6KvIQ2RBBCw
p2895
aV3BGv4sdxW8lJ5Uf1SOsw4A
p2896
aVZ3FilL837agwHhkZVS6X0g
p2897
aVZElK1Mokb8frc6wKR1Jrbw
p2898
aVI01EeNgRX-bqd0tbfL44vQ
p2899
aVtDqvTbunSbk5pmpd2Ot_Jw
p2900
aVC9tCsaYVHdMcQeACECXDCA
p2901
aVfREQimvpmtkHn5XwhbyB4A
p2902
aVMOjO4rAQ-kM3gQp6I0y60A
p2903
aV3CURBxF-ZF0vfHyl8ONF_A
p2904
aVhjeUJa_wvTkhDkhji4FWfw
p2905
aVnELVJlkX8T0mUAArSPSJxw
p2906
aVcIzaqbZCvThYTtddKWzYVQ
p2907
aVuv0BTuVf_t0mLVZxlRRS2w
p2908
aVP2kVk4cIWyK4e4h14RhK-Q
p2909
aV76XolePTRKXrpJnPsIv6aw
p2910
aV-ANkfLbDf8aiBQ7vywIL6w
p2911
aVJErsIDg6aEIItzMw6Hq_wA
p2912
aVLD66Zs5T0o5ULLwdQBdWcw
p2913
aV5uwVhPPaz5VHfboekqKsug
p2914
aVnKoB5cWZHXYUIUcQsUDogA
p2915
aV9bkeCCr28lE7vxg1GvWsiw
p2916
aVG-iuXcbJnX3sA3lhB6nFhQ
p2917
aV1VthqrbEhYxl4CO1Vucdrg
p2918
aVSDiZ_EcAnPEaeFkR8d7CIw
p2919
aVdRSol9FDijztqnKBXTanCg
p2920
aVv2pSCNzbuj80NW4wsuMa5Q
p2921
aVA0puRx8MGQsnk8uXtpw4hg
p2922
aVJ72XoQspNBmPsX2iKl2YvA
p2923
aVxMlqIhnBKq993UHrIEaJ4g
p2924
aVTLj3XaclA7V4ldJ5yNP-9Q
p2925
aVI-80qRIw1e86t9u_NAaaNQ
p2926
aV8E0DGec8LNn6oDmPHmj-mg
p2927
aVjfeZtZcuTa4_PJriHpv0hg
p2928
aVNGaa4JBPXl8GzdDWWbxb7Q
p2929
aVs8Om9oHMk8xb_psgxTNeRA
p2930
aV7SVxpEnu760QstKGa3x2Mw
p2931
aVXggBk7qU_-bIF0Ou6GcSJA
p2932
aVWzbssEldqf2C5GoAKHbaxQ
p2933
aVfczQCSmaWF78toLEmb0Zsw
p2934
aVZNpAVHTehFYp0rObGT4teQ
p2935
aVWyknQ3kqLvg4Maxig-S8RQ
p2936
aVjIDhZ23eeUzFGPOxgxG3Qw
p2937
aVHyhmpb3UnbjtSEXvgviCow
p2938
aVDBdGycigal-eU4BajGje9g
p2939
aVjrzm-DzfUQGdtJYkuxWNyw
p2940
aVwjgOu3yfx9KLGn1oJKw4fg
p2941
aV4DcY4_8H69C9cppe0QHQ0Q
p2942
aVOaylKKrpzs8DvX_PC5JfJA
p2943
aVuiMTavYKLw9hxskV4xB2tg
p2944
aVaYpO4xX9yWRGfF09Co4SXw
p2945
aVoUtjYb-W82H8MHJ_QAITiQ
p2946
aV87ytRWXhhRW5FcVrOLKf9w
p2947
aVp24ECnwNOfdQMs6SDtZiiA
p2948
aVysV8DGKNTTC0LSACW8Q_7g
p2949
aVQe3tvlCZ8ihlR2jpHMXI2A
p2950
aV6wveyznYgxA0sPKEfe4wOQ
p2951
aVVo6PjNjXwagaGtwSUxrg_Q
p2952
aVboIkH_QRKZ-JjNojxzGjNg
p2953
aVYkafUZz74f5C8ozi5NX73g
p2954
aVjMRYQ9pxrpCDZ5XigvetoA
p2955
aV0Ypfll3kJiL5OrxBBat_Qw
p2956
aVsqrV5h_d103X9UYpXysWWQ
p2957
aV3VnRQeaEMsSnPM9Es9LjlQ
p2958
aVHXxkN0gN0QDNL4R1Jj2nkw
p2959
aVGTILfaOIYPUmXSftug8aYw
p2960
aVNI-CCbk4K8lcJjerem9AIg
p2961
aVh2lZY6mojN2ENQdU9qazGA
p2962
aV_r41TOiRnnYnp1PO6gh_FQ
p2963
aVXHsoYj8SxOV18kBcmiUFJg
p2964
aVcc32R3hFVXp4H9hl6oRdKg
p2965
aVF3YZwYw-8owR8DD9Piav6A
p2966
aVXUssrbu8odaPEuwd-beqxg
p2967
aVY-PtvI5uredvJApbWCmn9Q
p2968
aVAX5N-yKV0w-lVNTHyb9AXg
p2969
aV08vW8jwsZcNXc9k1_H7H4Q
p2970
aV8aAsRyACsmB-Ym1uIyUx0w
p2971
aVzunSYtFT1h20xnQH_mTsZw
p2972
aV-Rk_M0veSqcwPrmkEKIiRQ
p2973
aVT_CENvZF0tWK8KW7A_ej3Q
p2974
aVwpu_Nj9orL8HkChgv7peMA
p2975
aVS8ZY1HEDoECqKrIUY34JOg
p2976
aVS24pCsFa1OcVXcSrA4VlrQ
p2977
aVeuadoc7gbju3zFjB37x3Cw
p2978
aVJaGkBxKHO0jN_Ob72-BBZg
p2979
aV0bNXP9quoJEgyVZu9ipGgQ
p2980
aVOPRiNDjTGidSKbYV03X4Tg
p2981
aVIhS7puu99Ogq7SDUUhYaiQ
p2982
aVXmGVYd1mGM6XToE-7yXQLQ
p2983
aVyVvh8FpYuFU9M79ewZYjIQ
p2984
aVTUEGOa-KVmRb3lBxYvb-Bg
p2985
aVjyT5FBtvuHwctrzCFUDHJg
p2986
aVB7tOC8K6oGE36O1ORstqLw
p2987
aVy7NxB1I19YIxTSeZLfk6PA
p2988
aV3ZKzPD_6tkF1cH0LwKeHJA
p2989
aVsjBC7m4QfPHEIvkT_ERHGQ
p2990
aVe4hRx0m_SnQYc7BUo-LeVg
p2991
aVl3avRJAtL1azZg8Jf-CYRw
p2992
aVoQUPeodBkZKof_Ik_MCoPQ
p2993
aVEG2AH8vQI_Tyz2-v2kTUkw
p2994
aVomg6Gw0IhXomqDK2LWQNlw
p2995
aVWeWRKhVhtWAdohcCaLlY-Q
p2996
aVnfNch-WQPzubm8DR4-S-1Q
p2997
aVnuiihZMgVJ68J_lvUujr4Q
p2998
aVXmhOhS_q9sZib_6Iofg5vQ
p2999
aVBCgyGAsDdZ1kEW0C6mukIg
p3000
aVfGLZJFSZOC4T7swijw_n8w
p3001
aV6kmu0mYbdpMIOZ6Y0eVsxg
p3002
aVOgStNDL49TYAiVaXNwkq1A
p3003
aV_A840qMxhwGXEFaKYOPU_Q
p3004
aV-CKutXMmEuP47OJX0uJSUg
p3005
aV_2o9_65YCI1bxqL9RCC01w
p3006
aVQqC9YTlHfS2EyFkqNqCEpQ
p3007
aVJLM36sYWmouJAZ2knzst7A
p3008
aVoc_ovS7Zeo9QXo8HkO_UfQ
p3009
aVowgDVMxiKina-_al3MDkOA
p3010
aVkCTnDWHBiBktXougIKRMtA
p3011
aVHWVi5gk58dlZF_2gegoZHw
p3012
aVvoDxeLRAKEU3G03gRZauKg
p3013
aVuvKYUzjCgzFK1o7gGUPm3A
p3014
aVVpLZr1YZzRSri5R6Nqdf4w
p3015
aV8UBBkdxYDCnSsOVc1YOEcg
p3016
aV0gKwWla8j639E5RmgiijVQ
p3017
aVzMHtn2_jhn97rObsQSbfHA
p3018
aVCRPB4-w_k2XOrjtHSPrU7A
p3019
aVHW-cL93tvU7qng1sZueKWw
p3020
aV_THWnEpJp48u-ffNO8k8Uw
p3021
aVhDOczCF2gCysmv1ClzzhSg
p3022
aVDg560aU9ymlloG-TOPx0Vg
p3023
aVZmSKVX7q0GVXxmVFUcqGDQ
p3024
aVkYi1-z_eErTLozHG9gBYGw
p3025
aV6QJVy0q9fVCVLdND8FAIaA
p3026
aVyhByTmJlswtYvSq9qKrskQ
p3027
aVvTTEOblYb6L89wVdj7DgLg
p3028
aV1GQTjPJ2QfAQdm0MiMUU0w
p3029
aV9eroGBWj_Ft3YyIgtUu4pQ
p3030
aVFLDAI6TXEe5Drr_eRKVh4A
p3031
aVhVnKN10iRKwMqY1vt5rNCA
p3032
aVvSLjNr6sAOfTKVxVxXGZ8A
p3033
aVuHq9T4xEvdldiRI5k1WidQ
p3034
aVnmPlIgo0a7E2kar6fmOokA
p3035
aV_A_2A-bjADJTKBoWd_B5qg
p3036
aVjxoP75rNkiTt0aW_8NNeQw
p3037
aVFXB--xaRS3jGwfKAZD1sIQ
p3038
aV7zpDhrRZRTGCkAh3SHbEww
p3039
aVGO11d7wyai9DVtHGV52OcQ
p3040
aVqbVAB3Xxxtc_OzsDNCmUBg
p3041
aVWbmQ-GJc6FfXeXzWr-zo8w
p3042
aVXhcM4_Tzxr05wjbYCrBhPw
p3043
aVNsdX4etuHdtIBiOUw9dsXg
p3044
aVnGTjELy4HFYmJxdB2c6dNw
p3045
aVdS02pxg9FMgcJoQEohsMCA
p3046
aVLkA82wz0lbbNtUKILki0zw
p3047
aVG7PPBsdjrjwxrcKdFC8gjg
p3048
aVt6u29OyVPTIDI-RUlmp-WA
p3049
aVT20oIYlTU3ubhaqb5qjMBQ
p3050
aV9cxpL6xewQ3wr5fIPyDEJw
p3051
aV9hCMcrhNykdVh0ZOJJoVVA
p3052
aVwxhf-RSExCGECZuz_iVV7w
p3053
aVAm0M-nmJZ9fIU-NBFCzSSQ
p3054
aVSte7VjL_JbXJzlrfoye7VQ
p3055
aVHv-U6M-gVXf8jqzgWbYLXA
p3056
aVolzm5hG4BBdFLBQJZ16rkQ
p3057
aVsEWeeq41k4ohBz4jS_iGRw
p3058
aVpYsYs7eQ9SWqAaQS0xoRLA
p3059
aV6RAaxkniNrXMh-uvTfxMcw
p3060
aVl-UV2WLxUXUxe3BU7a7THg
p3061
aV8ZtNnxLl27sjVO4iyHiEsg
p3062
aVLnTrX9BR240MXg3XJ0wsDw
p3063
aVJffajLV-Dnn-eGYgdXDxFg
p3064
aVCMr1unJEmblTB0LhDqdNOQ
p3065
aV20oSUpGigEzN5t2G7lhEKQ
p3066
aVAHsfTiLmnTBRoPDaolhv-g
p3067
aVRPn0Avnq-1syMwEYz7kPrQ
p3068
aVaGuFGwngJz4E5fIyjMqrVA
p3069
aV9JeRGa-tJEEYjUuQpIblwQ
p3070
aV8fMBZLEz9oPtQ0_J6u8GpQ
p3071
aVqpaxYt2UpnxZouK7vNQG3g
p3072
aVIPJTjIzF6T4IGQ0ha933aA
p3073
aV2t9wSXQ3Luadi_eW7O6Tag
p3074
aVxlVIInd8GHQgCGhrYmj8iw
p3075
aVa9_5qS7Oc_XwSnXgrSIw3g
p3076
aVyZNs-yfngjQaGT8zzflE5Q
p3077
aVjntSRFnN_O7QfFzZo24rvA
p3078
aVV0y4fqp-4pSRfsz0FmsjPA
p3079
aVKPiC2Hy5Enzeesa7Mg1uOw
p3080
aVLnsjbZqqo6m3-58_8QVotg
p3081
aVAKqC8waFcFS7iYhL-02pgw
p3082
aVm-OXR1oSLHH2qdAWT1ACGQ
p3083
aVpzEo-hilEUVmw-2IwWzSoA
p3084
aVPyZFzAN56d8S7iIzeoSV7Q
p3085
aVpJp16YQoB_qqkLKboKQcKQ
p3086
aV7-7aKFcWLMC_nrG0S9u79A
p3087
aVMt7YaOYvqrZDfR903C6cEg
p3088
aVpqlRaKvhnyrNoxT8yeadWg
p3089
aVDjaDNcyWNwvAzzD5EtMhog
p3090
aV7JKz2AfeKw5oTUJRR3lz8w
p3091
aV6SxnRYFR3GUzGREKSttxJg
p3092
aV6ZpssMOusA0l4kNosCGOqQ
p3093
aVPponzfdq5fYm5Za7Oj1BAw
p3094
aVlCD3wyHthsYFlP52Hll-QA
p3095
aV2vl3MXKr8iQOWTNse5kgdw
p3096
aV2xl5reFNGc1w8qUmc6ZPxQ
p3097
aVKun0o9w4qlqJ7JWmaGoHig
p3098
aVWKLzzpOUDsjom96cjyuEow
p3099
aV576tYughtwj5XhENKI5GLg
p3100
aVQe_1COeOqBrCQ4IhLw9Glw
p3101
aVALMRejeIBZR7yN-ooS0MIA
p3102
aVQqE5fqfLcOSHthB4X4s_Fg
p3103
aVvyFYFsQMkHkN3vw5jPuCZw
p3104
aVTnIOAGbK33PcNDl-4dU7pA
p3105
aVPrsk7SiPZNfgcPyygOdGHg
p3106
aV7srr44-51UbLh3Nk10WdCg
p3107
aVwtFSAIZlKEGbAEIKepDjNg
p3108
aVEfdhEro59PopaJpT2CKKEQ
p3109
aVN_q2Wv1ckXqLMuIRaAzYNg
p3110
aV2dgreYXset1eR4qPc6Zw0g
p3111
aVQ0-NHs_k3xvv5tln7lA5bQ
p3112
aVYHyXm2325E6spmnDJW6FPw
p3113
aVeBUE5o2msLFOjJvFLm17Ig
p3114
aVytr46wNbedr8-iqSZngl8g
p3115
aViDs0mr1LAb7m3K2L-KcAAA
p3116
aV0U9fwlPYRV5cy9G9mb6Q6A
p3117
aVoupgo3fb2kl4AbJ35fhk3w
p3118
aVOqOCMRpVNvvdPDMhoG_DCA
p3119
aV9ZonzxW0DAqIUO_5tDqZig
p3120
aVzI0j9SN1aYoQSPOlL4E4rA
p3121
aVDaRta40nuM2sk9E9q7sD9w
p3122
aVsaiZmxzBIowJbMgPBW1Now
p3123
aVolT2J66OB2HFlRymvqkxZA
p3124
aV4z36S3x6JwtdPDhbKADuJw
p3125
aVCtL60kzvOD7TP6UZhDA3wQ
p3126
aV8Tozq7NsjfJEiYIDmDIxUQ
p3127
aVJEgsPIdN8SlYR9uG0QNkHQ
p3128
aV9yk7Gh1GC_BPWyO6WigNgg
p3129
aVRGc034CUBy93RE4qXQ1Scg
p3130
aVgBID8jIwsQIE5W_Zr0Vhjg
p3131
aVxBl9Ke43PISGJC_iGkv-UA
p3132
aVLNna6In2QmJrDfP27-rhNA
p3133
aVasVOf6vmcEUQGTfcVCPH0Q
p3134
aVrzmQF6tNYgQPyzx0z0rB3A
p3135
aVDdxfNRK6O8UWVkhT4Nsrcg
p3136
aVqwUWPm3F6K_b01QOqJrgMQ
p3137
aVHoBSINNAg3dMOAyBAJqVdg
p3138
aVoCBThjlnROP9icuEjbLLUg
p3139
aVs8u7HOfcEvcOcn1ATs8o4w
p3140
aVUf_PrKEpYGWBsL81lY6NSA
p3141
aVXBRclH-EAuh0Uq_n1gMHfg
p3142
aVSJVt7_0p3b6H9Vfo7cfC1Q
p3143
aV5RNHj57UYLKbqKNy3r7zuA
p3144
aVr7KlsQ0TYCYCBH1s-b2wnQ
p3145
aVbtM5nOZBNJCM4yY6D6eTZA
p3146
aV8qm18ghIA1EUHJrBSVIybw
p3147
aVFcIKCC2sD-tayEwHubQX8A
p3148
aV0IAOkW3KD1Dsx2hnwb0CSA
p3149
aVfnYuI35x7wAFsE3zWUkYFw
p3150
aV59HHn3MENZJMvazbUpV_xg
p3151
aVkl0zgp60RM09pySxA5NubA
p3152
aVkgyv3ctYEZ0ACslpoakunw
p3153
aVuQmofP2QLJ0osvFiwWNkfg
p3154
aVAP6udBIStvWLY0T5rS_24A
p3155
aVq7Zn9s5wXAjhhSJMf7GiVg
p3156
aV8s098eSxfwg3MzmrSONOhQ
p3157
aV3cEiqteg4SeGrKHN-VVOvg
p3158
aVOHnUVMcHQHF8rLSAoGxcjg
p3159
aVdf8Xa6k20387pjRjdItZTg
p3160
aVGLMX8Is_Ur6aIVV86Ok0Lw
p3161
aVpTF_l3JDYu1VBC2sJGvTvA
p3162
aVfmYe3xCadoSVapp_HoANlg
p3163
aV28f7syow9TrDyNWzo55ZRA
p3164
aV_QHDTunNfbvtdbv_JqQD4Q
p3165
aV687b_5uUBlitPUac9T_u2g
p3166
aVe_xPiYSiemLE7qzcsMpWzA
p3167
aVOtVsrs5slE56YGfbHWMgIg
p3168
aVxtL-kQbDmjbH3qBbfxwvTg
p3169
aVFLxgiNF9rsiXR-zbEcWBRQ
p3170
aVZZ43etAB2n_T53YBYtf8Dw
p3171
aVmJ5aiaEzlRg5eQCO1Z5DaQ
p3172
aViJvrW5HPprsTlsABAdYeGQ
p3173
aVltCiu6DRJT3gi-EF8yivHQ
p3174
aV45DGEQLhKPYqMO3-dwuqfw
p3175
aVdQhd0Wfn59TYWf2GVukEww
p3176
aVXPGCWhBzJM0bQT-f6wzfRQ
p3177
aVSaNqtR5yjYSkz9hw32OSYA
p3178
aV3k7SY2V5MrVwYIsMexTSfA
p3179
aVVDHUtEnPh54OJiYow91d3A
p3180
aVHXTqaf8TsKjWtr5ccc4y6Q
p3181
aVs0EvDQLfVJmT4rZHjeuPbw
p3182
aVDCDfXDX19USQGgJGHceP9g
p3183
aV-B32HlBjDRafJpD_eW5pxw
p3184
aVsrV5oIE-PtTYu-CDjebsvg
p3185
aV0-qZ-SIihcvv9wl2Pts_0g
p3186
aVe9vpVz7vXd8SaQ_yGTbcuw
p3187
aVk5S5d5tkYFCGTFP_6465mQ
p3188
aVX4u2CPf3Yq1wmxd5SHGWBQ
p3189
aVyVipgRBSZltwguW3KMtNXw
p3190
aVfRbbPPUdMCmL9o39yshi2g
p3191
aVN4OS-yhh53mSalY_KMJKEA
p3192
aVziRQcokOU44tFQjfvBWvNA
p3193
aVCSMqBI1Pi9O6FA7515tFqQ
p3194
aVC8bZLucEcEFNptJoLSO_gw
p3195
aVPOiiNAnA2XCHJIzfM6GslA
p3196
aVm5GGXnQumLI-RSWwMWyBnQ
p3197
aVgSXgEuv2wf4QBwzu8ySbig
p3198
aVnl4s4jCbuLTl2hL2dL1sKg
p3199
aV3h5UR5GSRE1nC9SJBVVoyA
p3200
aV3Jp95wlsNR-gl3J2-WbQng
p3201
aVBcTUu_Cl6qBm-WIoDs0YAQ
p3202
aVawkL7n5OHpjEqHpPiM-t6Q
p3203
aVsegRxemFobkHWDBIkMb4Qg
p3204
aV-uslRG-oovrIkvJu2LBW2g
p3205
aVnh2S_mVAV2lKDYnFHrXTvQ
p3206
aVkDZUGqP3j8eiLKIExBWI8Q
p3207
aVoTj8HDZ0RQCHafB0OWb2tg
p3208
aVsRCUpxGy4UJ5BEcbOza1vw
p3209
aVbJDfVV56Gbmbd2GWzgKlzg
p3210
aVgbKH4HrMms3kYIAFILuaCQ
p3211
aVX_4U4ZqSmcXGD8AiLB5FXg
p3212
aVEOffNH1xPOh6WMaPQrVF7Q
p3213
aV_wY1dHBXKN4NjB5IsIk4eQ
p3214
aVVvcvzUynAorlkQ-xF_4qAw
p3215
aVzS1mAL_f6DxGqZOhltYQeQ
p3216
aVXl4mKBt1e1qJXSKIeg-E2w
p3217
aVMilv8k4zZsoCaNFZugKtJw
p3218
aVQafe0IWsx68m2KgO1cxLSQ
p3219
aVcD5_lX613zUyG13MT_wQnw
p3220
aVU2zN6K22bXa9EgfAmGIEbw
p3221
aVthK6q6FH2t8HiopRvjzBgw
p3222
aVEsGJlE3aKNAByq1GfXYmMg
p3223
aVZfB21VMsx1j238_5w3VhnA
p3224
aVpTqo5DhBWZkgYWVGyJicQw
p3225
aVXaQ-JQ_dyOVy0COKvdVdIA
p3226
aVGALRNo-AbcAHxEdmqKl--w
p3227
aV1noVqERUUdFh1iHVxPnllA
p3228
aV9V_MtQSSoIalUQpng7k6CA
p3229
aVrVvflbz1venrgM9eVvMyqA
p3230
aVJJyzSAv6w83XsCAzLivqOQ
p3231
aVp7PjqH8_0KFe0ZKHOlwz1w
p3232
aVAVu8bja97u08TGyAQDYdcw
p3233
aVAQPw3bFtjKzzSv3h-enMMQ
p3234
aVFm1kLWF2t8DdvIMs0zW2aA
p3235
aVjOdmuH4kPZUfWH0--IIvLA
p3236
aVzumKKKKlSsgrA96ncbHhxg
p3237
aVwAUeIS0RRhJD6JE0t9No-Q
p3238
aV_46Sn7OmqF-odwJgfyPESw
p3239
aVNDoioIg0bvSBZDxN39a37w
p3240
aVTEkpFMnQyihAcVDITFq3oQ
p3241
aV6Xv2qGam6tAlGV7QjgpDXA
p3242
aVFE8NMzj495hylRXKsa7WVQ
p3243
aVSwP6dxmxAHe_T5bar0yV9w
p3244
aVN_X1lcwjagwALKv-fJ0KOA
p3245
aVH23KoR8A_iQ1RgDZhVqwCw
p3246
aVp5QLd8D4tk5Fp77pKF09eQ
p3247
aVN9_dBF5tsC5exdVaV5l2Sg
p3248
aVSB9L3xDwYybGrYNhQPRC9Q
p3249
aVkuP0AMnSGgkLfNSt0wOAgA
p3250
aVEwMgdjuPXLAuxxu3IOUyKA
p3251
aVu5bvcT_3Go0O3Xk4Am8CWQ
p3252
aVMx-vxv_V-SQCe76w4RmUfA
p3253
aVL3q4JMskniKXf4Az04KNWg
p3254
aVCfLfTEa6Cf_O1SRm8UhEgw
p3255
aVfr3HXiNw5JiIIspADCS5gA
p3256
aVNk4F46Pffx3B1HAupQfsog
p3257
aV9pSSha6qdGposHm3_V-UQQ
p3258
aVJTcy4ej7dlv73KDa-AHCog
p3259
aVeOBvN22GfIAUETEthSvNVQ
p3260
aViCxfj51Ji0vAfrIsCRqblg
p3261
aVN4UrstyPVHdNU7KqHkhvfw
p3262
aVZ_JYTA4pC3umRiceGb_cOA
p3263
aVhpFDt69a2J2q904jWM2qpw
p3264
aVQ_iaCGIdC9ipwMu9Q8lm-g
p3265
aVB4fTdvZbXCdUYCQatk4PQA
p3266
aVw0T37dQfjG7a_2Or12tC6A
p3267
aVm61SjiXAIlOY1qAXOHEk4Q
p3268
aVtzPn9BDKbYICxqf9bz_70A
p3269
aVy1941TMhAS9O5jlhDXvZiw
p3270
aVLXg0qZbRViO02GezPRe67Q
p3271
aViFAY30kM8soF-Q2XlaY-Rg
p3272
aVIu3Jo9ROp2IWC9FwtWOaUQ
p3273
aVORRz8KqeiLFYYQuEYWdmUg
p3274
aVDt2QI_BfWSiT7SnvF08_yQ
p3275
aVnOA4lSY3D4xsUXJBT4H0pw
p3276
aV_BWhSAjVNmVSNl7pTG4w2g
p3277
aVWXOAH-FoC8yc77JD5NwtVQ
p3278
aVuI1HFHjEQrtR_vqMJTXmsQ
p3279
aVdpBvLVbRxZC7bvRSO_lt3Q
p3280
aVYbvhi6-36VK49nT11Qh1Gg
p3281
aVDkqMo5tQ2OKeuUZzUyPLJA
p3282
aVOnB-G2QUXeDmET4q21O7Gw
p3283
aVIyEdBo884XBPmNLhIp8dig
p3284
aVzJchmQRyuqDeqTWOae0soQ
p3285
aVhOGpdOfInhNqTbr8VSzBtQ
p3286
aVmdqDcnfQfTIcxM_zaXWaig
p3287
aVfGm1SjmZ5zvflCXdvQGGgA
p3288
aVDk1pIaKY_vBronnTQQyvEA
p3289
aVIDJ8thegaElKvQsk495W9w
p3290
aV307MwBE52szyAgIp1SgNAw
p3291
aV3ikfw3oSrkAb-xbcJaaSBQ
p3292
aVUyC9ppvQMSrh9C3jqqbKvQ
p3293
aVbM2OTIopnFoaQGLxK2PxPg
p3294
aVg98c3p2XC1ePPDMUODT15Q
p3295
aVAAX8oeoIq2UvMDLghGBclQ
p3296
aVOCkge7lzOw33bqMs1244Yw
p3297
aVmBPsaHMTscYuyHW1zpK09w
p3298
aVuUaa65QoIr0dOhfzfco5MQ
p3299
aVPWXJpyVyAKtVehw4suOimg
p3300
aVDsijY23oT6DcpChLgSMT5A
p3301
aVrjJJ8QQg-eqb7mgMxArgBA
p3302
aVnV8c9HTI1r5IpUB0Fr81Zw
p3303
aV_s08OIE-gUbcQvxC2mbxBA
p3304
aV7t13t_aKG4TsvpB7iEcS5g
p3305
aV4BEP7fN-0q5V2ehJr4icKw
p3306
aVGEUTx3re-HmI4fhc47klAw
p3307
aVjyHL9luefajQuMw9tfmJsQ
p3308
aVIlQkSpwXtYygzHXRCoveHQ
p3309
aVY9dC6RSXUtPC5o90ZnC3Kg
p3310
aVVx7kSVIwWIqU7njJAutd2A
p3311
aVzaNMEzE10gRwmBhFk52KjA
p3312
aVF4Eigu2W0lpF4oEwa6lxDw
p3313
aVxuHMuTIomP9f4aUjYL5K3Q
p3314
aV8tbXmjYGsYFZXk6ppuwRWQ
p3315
aVjVhEtuXwwRZgjaLti7Lecg
p3316
aVh9cFeQdtCpjuy10GlbMNjg
p3317
aVbaTFgqQgKlWJyv3XZEYYdQ
p3318
aVC7x0TmKKMF78EvBE1Mk5fg
p3319
aVxfaQoKx4889AUoV3M8Gj4Q
p3320
aVxjful6raFwFRAXaDZCD1Hw
p3321
aVC6jV8yFHlfZLWvsysaQ0VA
p3322
aVQt0HZ4p9E428eyZ0lJeZIg
p3323
aVlolnl98yK6IeRBNoJ1Bafg
p3324
aV6R80N0O5E3FJ42f94O5RPg
p3325
aVpfEdFlVEAl2tgua-7h3aMw
p3326
aVDA7JBTEjeEUH3F9o7v8Zwg
p3327
aVU59-URUOLpVN_pfpMaWKQQ
p3328
aVFYwmHBT9IGSFArv7Q78gxQ
p3329
aVOp7wYJyUbpWm3cIUXHRz1A
p3330
aV_7el1cOgnfkNfmZKi277bQ
p3331
aVITrRVIWUKgYqUzZLDtaQ9A
p3332
aVuPcR2D5dyvLlgvdEMgitUg
p3333
aV6qnJ6fUa-jDNKViTVcJy0A
p3334
aVdIc95cmS9b0TQnjbSLq7Nw
p3335
aVxNb8pFe99ENj8BeMsCBPcQ
p3336
aV-VyHbKHRmHgVURLWw4yY3Q
p3337
aVD8GD--YyjXVtlYjDGZX1yA
p3338
aV84X5uyyQmGhZrq9z_IQg9g
p3339
aV90kVHqzTDOyWKfvonurD_A
p3340
aV_N9rw9tz1AgV8OirV_GlZQ
p3341
aVkbXND7Y3udL7sZA2786nCQ
p3342
aVjbqCWfF65QQ4bEkyc3w3_g
p3343
aVpoYY5eAB5n7lyu_INGt9aA
p3344
aVnW2rE_oEYbph-lx0uhroSg
p3345
aVgIiMONNZFHxEvKg2c6x31Q
p3346
aV5Fd93L51CcW9oiJxPPfgEQ
p3347
aVczN-pdr1UDlT0dtHUeEWaw
p3348
aVHhE4bvGlKB5nuN1odc9GjA
p3349
aVHWnRklnLgiTAX8yxHfOFjw
p3350
aVzmPzZYdZqP9MUfzhn8QTfw
p3351
aVUZfTRoV-4ipfXXWclu1pnQ
p3352
aVyxHnHENAwM1wlwd5SdS-aA
p3353
aVSKzDKyOuqQuf8Z6d5n0G9g
p3354
aVAPvJyuzecNqIzNV1cqjCwg
p3355
aVDfewvXBVh68PdGWs4cT5YQ
p3356
aV0SvkkPEPhzFKpR_exxCtlw
p3357
aV7Bm_wI9mfDrCuJmc3mCJgg
p3358
aVsLZYkJanCixT6Agd3zeGew
p3359
aVhTVYexioohnNkX9X7VWDPA
p3360
aV6IrKMXmBE1t1w7iJ4EZ1wg
p3361
aVblimeRPMCJggra7NOCpErA
p3362
aVjficuOq53jQe7q98WWn84A
p3363
aVI5ab7grI_zRFieGVvDUPEA
p3364
aVLdEq_hOTltUD_PX_9_qlRg
p3365
aVmfIngaq8vE8XmKETBEl2gw
p3366
aVE_nDOvQDVAG4PxAlwtXiGA
p3367
aVImkdMNvaptix18OWrETWlg
p3368
aVBZRGP49I5pK2YxZokJWhHw
p3369
aVUK1Be04VKd1k2JnScw-_bw
p3370
aV17lm3CpMPA0yRakJnUZD1w
p3371
aV3AIrbooopZxqr_3H4nP1fA
p3372
aVUCXhZkVOmzWcfdnLjdgDwg
p3373
aVspJUPXI7QaIctU0FO5c42w
p3374
aVwHfvDGojhXsB5mmAu8ulKQ
p3375
aV5h8l-jqqDS2Cc8pFy3vMOQ
p3376
aVRYqQJbWJ6KGj8LVSmGMjFg
p3377
aVnZFcWvgPU8T4JCjOVvJU8Q
p3378
aVfkwMNy9p30NdncKxGrdhXg
p3379
aVOSe8aWeVhNJQXg3qhWJvQw
p3380
aVHP_T_h2prwJr8qqrKNmH_g
p3381
aVmP6PQldkWKqcVPUP5XvfIw
p3382
aV98f92DVyKhoQZ94DbTLVBQ
p3383
aV_wy4EtaJXM2ekQFyGgkfOA
p3384
aVqAioovV3QDdsuR4bJ-2cCA
p3385
aV-2iNr0vd-jCCDGcXW6lDdg
p3386
aVk6x2Y8kxPdn6NfFbF8jMYw
p3387
aVDK2uQlEzieimubjslybf-w
p3388
aVjmv7eDUgx3cn1y-Qw8G-Og
p3389
aV8LYEPulG-ltZro0oEBREdw
p3390
aVLNKdYODHuGqah_nUaDJx_g
p3391
aVtASIROUKJS8DQvXzvHAEYQ
p3392
aVx2y4q8NMp2e9g5417WITGw
p3393
aVTroANF3f2PuYeVfSItxxaw
p3394
aVm3owI-ootxkSE1Dd08ETcw
p3395
aVV0WEZ2PQtJGX0sWNe89A8g
p3396
aVwYtCAzpt8fh9Cn2TOEq20A
p3397
aV2biTJfc25MuCOXD6XCo-zA
p3398
aVhBKpbz9HRLl0mcl7DyA0Jw
p3399
aV9_CqzA10d88ODgzMmjU-wQ
p3400
aVBKo0QW3LGBzAZug4doJrgA
p3401
aVH4LcRFLHl3v4_FkKSuxwxg
p3402
aVOvSCKm8fU52QEfLoY6DUCg
p3403
aVSptc2IOKAfM3CDd5QTCAAw
p3404
aVRQalwji2z28KIPq4DwLXmw
p3405
aVLPmph859UUDQTXU5XaZGtQ
p3406
aV4XFgicHvdrvAywEPs0gcwA
p3407
aV3p_lbe4_bWoQ95waNr0vWA
p3408
aVxuti50cDNGqj4H0soDUrUw
p3409
aVJFhsL8DHJT87G4eBasn8Fw
p3410
aVqd82vxwXxYkNPE6Q5kQ4fg
p3411
aV640yIMkALhRVE3JYu13OsQ
p3412
aVnpRpBqPZxLr65FHB9sZBOw
p3413
aV1eUgY4KDnfEjT1ZZCWvbYA
p3414
aVFaR5dMfPJrNJ2llVu4tM_Q
p3415
aVuU59NWRippyw1IyAnPM18w
p3416
aVrxGMXiiZyxwnYUrWP1OJTQ
p3417
aV59kUqmk-5HdTCyNuJ0_TMw
p3418
aVCux3vP_H9vzeYiCHa2QOrw
p3419
aVlqgdn2ER_R9fNKMLgaJ2Xw
p3420
aVvVDCi90aZXNealosZK2n8Q
p3421
aVy6M7TDkbEID5urBb_2oQ2A
p3422
aVG-cPucULVUUBdlPjShH8Vg
p3423
aVutcN2FtmIymOprcfFS-Tfg
p3424
aV8j5rre5uA2TxjX8Fk9Je3Q
p3425
aVwmUJXQPlVQtj8HdMhuAFUA
p3426
aVZW7oLADt3iMhjXloUHJ7mA
p3427
aVgeyb5IUTkwWBwpXPx5maZw
p3428
aVR3wz5noFiF6tGFDRDuua7g
p3429
aV7rffDjNG1_1m6Ht0VJ5NmA
p3430
aVj-dA6wumLsGgZEQZjOoELw
p3431
aVz6az0LcWcObMLxF5QIDDSw
p3432
aVGtV0RPZLK2fLBbGQsm-rGQ
p3433
aVxCwxTk3f21k_EC7VLcO6tQ
p3434
aV6IT1sTdYo-4sUMSMh_UBiA
p3435
aVWJSNywtir04BgDDpZVZMpg
p3436
aVFOfUxCjxD5xpKM_7mphLJg
p3437
aVQlOc_cKy_7Fs-Pg0vi9NAg
p3438
aVwM-4uxHkuThPWfSRaKXPdQ
p3439
aVODhV53XhesCBLJVfGsJGNA
p3440
aVojK15MbrUc0TCYK8740gtQ
p3441
aVx_MbMxRc_FVlZrTqclfUyw
p3442
aVRXrul5VWnGmW0_sA1R8dUw
p3443
aVDP4S_Nm0Dc6T1iGSmvQcng
p3444
aVQWWSnSnMT90PWSOnYKcXHQ
p3445
aVNfLyune1sAOVrHUAeQ9L-g
p3446
aV5o6z73Xzs0Z6tNqIFyoL4A
p3447
aVSfiNyNLmW7alXejl-m_iYw
p3448
aVdrnmLMre1TQRN9U1yfgOmw
p3449
aVyxz9Z-Ss4svyk1EEn6BzRg
p3450
aVIpjuqXEJFa-tciHOE5NN8Q
p3451
aVOY6rMEwr9FeSLFSdy6w1AA
p3452
aVLeKqsoS6XwCmh6GHqt1muQ
p3453
aVfzMMqhPD9S0dhN2VI7br1Q
p3454
aV1VsSqGhkvgLeYjyzmsDqfg
p3455
aVeAq_2RBtk_zmRy1_tEvnPw
p3456
aVbuNjiilt_yKsRacXjYRfkg
p3457
aV1T3ZBLQwiaqOKu3ZwWpb1g
p3458
aVdDdinrAqDdeR-LVhAuiOyg
p3459
aVhBGm5awBWKWwZHj0YkugFg
p3460
aV-K9LtKnG8wNBPOkoTTGtQA
p3461
aVwP5ModKUTzB4JtPe8RuP8g
p3462
aV_jpghfHskfOsN53gYZtHzw
p3463
aVBVvIMHPKKP7-oEx9IfmFBQ
p3464
aVIay4jEsj8GHzf1UA40ailg
p3465
aVKu2laTn2XmnD5u83kjEHmw
p3466
aVtNId0uuXOzSa61ncmfF5cA
p3467
aV5DomATQ1DIaAJ5je65L8mw
p3468
aV6GmVP6gpIjhhJOtvrpS5rg
p3469
aV4wFc5s1BxoC4PjS1tHd6ow
p3470
aV1Lu8MAjA8byyrwHQoYpiVQ
p3471
aV1c5-QJ-1zj7NzJMf0j3BbA
p3472
aVOsE7rfPZqpfjJZJeiANQUQ
p3473
aV8CWvJf52Ur_SRihSKWJfuQ
p3474
aVkcm-MLhYFaocynXznzTJGg
p3475
aVC1NCPmIP-sXfYm5Ywhjj9A
p3476
aVHCrmPNeV1QzMESHHRBhOkw
p3477
aVyC7VOAAvoam0rxEjTUd3UA
p3478
aVKhvD1kEaOnxp8333yUv9pQ
p3479
aVTERKplx-IX-UKwNFcvj9Ug
p3480
aVS_D5ja9VLDEUg9EyMn5vCw
p3481
aVsELE9gPbLJKk3wuoOeowhA
p3482
aVv-FX2WyDYOpA6wqpzudZ9w
p3483
aV-o5usC0I5GYTiYDsLzMWJg
p3484
aVDQ3F1Kgo0Vrjnd74G8k1Rw
p3485
aVWqdJBm6qpwbSC0kWgsd56A
p3486
aVLqsIqafQ47qStxlOXKfMnQ
p3487
aVneOOSMNWcVL0o2Xwb0goVg
p3488
aVhF9j5kDhoabzwv7OUTjZ6Q
p3489
aVVgjgoQDmWTDXrWj3MqJRRw
p3490
aVnGFeJmKTLu_QT5hRyJAHLg
p3491
aV3Y27vBOZzbkBhelwqu0rIQ
p3492
aVuTSt459ZUFQ11Q9fu37jvw
p3493
aVCqWHrA6o9WKmbYjtnoKkRA
p3494
aVjx_VaNwyV78AiQj_IQ5oMA
p3495
aVt3rZpAy4CrPi3kuJGfuCTA
p3496
aVeOnkjzW6jR8frLUZW2PobQ
p3497
aVb-u85eePnSX5XtfEzIz7gg
p3498
aVuUFZa8sva1Y2eedoUihmBQ
p3499
aVMahRTpcoMv6YbnVd0I5nOA
p3500
aVgyBs-PcHasLx7IF9B6OBZA
p3501
aVViIXwN3AGV_LAkuVHhh9yQ
p3502
aVTmrLXwR7eTyy0nzxXhdcnQ
p3503
aVinkv3_Ja07wnzXvrc_-4eQ
p3504
aVDfLoud0VM7TZJaRp7HtRcA
p3505
aV7pfs-dhgcye8nE1ktpVJmg
p3506
aV2dcPh9j30SrIYO9tB2YXLw
p3507
aVVe05sG1S5QLSm5Yuo-96Ew
p3508
aVsQBMbqZWNvqII8QwW_6RPQ
p3509
aVexjMRmxLHeiT9G7rnswgxg
p3510
aV2VhcOYqEFiZKlFlPrp2VJQ
p3511
aVGwBZCk_ptJ6Pq-_h9xcSnQ
p3512
aVP6cYaqErTTxz4dm6KuRxwg
p3513
aVSrjtkJx8VM-Lb_SXpFxTwA
p3514
aV5fHMExkZBKXxK8jkTCP3lw
p3515
aV_W4Pgs4js74DZCMQ4d4jLA
p3516
aVLw99LHT54yb7ED0qlgujeg
p3517
aVqAs4VqAnM0gJUgF_9NqqQg
p3518
aVmzM1y8_2nIdU52BHnCNrXQ
p3519
aVLYBDUrVgaeMuD62ADMdqJg
p3520
aVizzIjz1G6Q_kvHwwJFCOnQ
p3521
aVtLVkJAi02KzjfARmaXVEEw
p3522
aVhWzDmuqeJQJhAUl7UB-Rgg
p3523
aVR1xgU5qLdX43rY87jQcJQA
p3524
aVtEg_MQNF9cc0puv-VlQNpA
p3525
aVQGRNWxVU-pbd3piNFWU4Wg
p3526
aVBURJIrKuDNC7-NIFJxNXLg
p3527
aV6IHcb7PC6qiYR9qEsBieVQ
p3528
aVPawuT0oIdxXk3_7b_gmprA
p3529
aVRcddR6ja-DFEvqJUMzzIKw
p3530
aVJVnGX-4Rn_jMWB9picw-Vw
p3531
aVU8cV3DTMGm-EmJKtdCwmBw
p3532
aVOEhW04M4wVe9AMK-9pWVGw
p3533
aVkbH3vzkCIkCFPepJVKtqOQ
p3534
aVBWodVnFbZE04oFc5fKsykA
p3535
aVF6z2FrHJq1SyW3QmqPNaAg
p3536
aVhSZrn3sB_hzeFIkSLMzFCw
p3537
aV-q7iw4J5YGt1FJxTUYz-aQ
p3538
aVKgp0gt6gMkJt3ubv9cu5Xw
p3539
aVUEO8rvDerEp5Fk8jOCOBgQ
p3540
aV-dt1DPlBwmkktvnVov4_jw
p3541
aVnWNNojXYkXRl_0_pNbtfbQ
p3542
aVcqNl-Nus51j6AO9Gd3tHsQ
p3543
aVGW8CGcnTX8X5qp3Fb68SGg
p3544
aVbvJvqYTSnStE8QL5fSJCkw
p3545
aVyB3Vkclg4MOKYuSYqVs1ng
p3546
aVZK3PSm_CwSIW3RYMZJ_g6w
p3547
aVAQnk7fS3XdXYM2ZWSF_Wqw
p3548
aVJnFI2B1H5DkhVWM5NehsDQ
p3549
aVVyswGS1cQKYTyFDsbV8HbA
p3550
aV4XrpU7kpxbFqMNdDEsj-xQ
p3551
aVnlecwUUBpQo1NLN2Q_DUmQ
p3552
aVtACaOswIM-LrlqJ3k2izVA
p3553
aV1BW2HC851fJKPfJeQxjkTA
p3554
aVenXVISXPVpRv3InUhexQNg
p3555
aVwuCszpVPMIMyOCualnZtaw
p3556
aVHSKrdp21e5W_uIVcsHQTHw
p3557
aV0uhL2yyl9Voxh5RVGNDrLg
p3558
aVKblOD5OwviJ9-Bxvitf2FQ
p3559
aVQ_joJ5KDY0HuZjglECK4fw
p3560
aVgNmoBqS4Cx8L6VsZNw7BEg
p3561
aV53YwMtCwpylukkTPvrEN4w
p3562
aVCAHini9U9gpmvSfQS6pzcQ
p3563
aV_EEMYOiSTTncyWqu9H107Q
p3564
aVHIlrU4ShA10pNwwhc4xSaA
p3565
aVFwzXiPL8nY3PmmHjRP1h_g
p3566
aV0HUI3xgzy_jHxGmWSYDy2g
p3567
aVfmDT8f3MpZ7kKbyI9r56Og
p3568
aVh6Y_hnYC4ULJ9XUeiizt0g
p3569
aVGZirmDKOmmJVJYMQ63mpdQ
p3570
aV6dDaq4bzuIyS-RfUYGuHgQ
p3571
aVdGfMkK_fdj6nfiSeEmtzrw
p3572
aVzSW4rMepOLjf7Wa0-R8c9Q
p3573
aV4jz83Df1emVCgifPOfuoFQ
p3574
aVaBqqRCQWmy-NS7GdjcYthw
p3575
aVDonp4qvtZJXn047wCabv0A
p3576
aVotG7VefzGlPCiNnsUjtesw
p3577
aVufW7UMmc27p-Af1YGIG3xg
p3578
aVsZUwd8g_crDamsZNvw2E_Q
p3579
aVfhrK9DRo2q8yEHADXXnpWw
p3580
aVfRnnWwGlKblflhViFlo9tg
p3581
aVaXj7n5dawN8WCOCxWYzRmw
p3582
aVEj_CN7Ikvs0BL4s5LmfHiA
p3583
aV7ETQX5TBg1-vJvBVC2akBg
p3584
aVX_kPh3nt0AJPNPHye2rTlA
p3585
aVR5yR3y6Nlvm0TsvnHXkDSA
p3586
aVjqlPckTumnpCSvQ9jkiXwQ
p3587
aVj11_9PcT34pQmhSz9LAItA
p3588
aV9pNhJDugp_TmUQJp-z3AIA
p3589
aVixmIOzehN-6w2b8oSEYP9g
p3590
aVgp52zPyUkSnkIm-TciK3cw
p3591
aVBZjTa_oQHp6GDp8_81wyzQ
p3592
aVTgacNwIWRp2mWx5zX9AFcg
p3593
aV2feQOduU08RLSIKM39RQOQ
p3594
aVM-cg8raooXZKV8NsNmQGjw
p3595
aV6VFHoeOaYCwZMgosAf08XA
p3596
aVr6MNpq2nFIbydMOa-1JWrw
p3597
aVr3wE-UMb-ooPsn0805v-3w
p3598
aVSgDWDjBr8fV7id1UnFaAFg
p3599
aVGJrGPKF2xxB06Es6aH1VWg
p3600
aVQKYKnYcLXXmjPuZ0i4jFew
p3601
aVyY1MgFvfDVDhotp3xWJLlQ
p3602
aVydBVKz-bTrNYTjDezPZnug
p3603
aV5yr205ps0_WixZAh_OF6eA
p3604
aVJbAeIYc89Sk8SWmrBCJs9g
p3605
aVLusAw6vTDC7KAfbuClMReA
p3606
aV7p7KgL8cvBfOuMNghE6duQ
p3607
aVlBOPP0v48gpzkte2De-0sA
p3608
aVV7KQA81CSEiG6mPzpFAUyg
p3609
aVPxa6045WZqXTHQEDQWO8Pg
p3610
aVolKIOr2PVh0gLcblu2ZONg
p3611
aVorwezMFY5c335T1JaTCaGw
p3612
aVJ6ilp9OulvC0EP2H_26Mvg
p3613
aV1HyygPKSSOiaM0wkM1pP8Q
p3614
aVSuehfljAcbR6qIiTI7uENQ
p3615
aVjfn_5-XfZwnc0megQqwdYQ
p3616
aVXpJyG_HLMSjQcAFzOfJhxQ
p3617
aVhBD_m8ElgHF0vcBXu1nx-A
p3618
aVqGO7UYJpAgkFy-s_CCic5Q
p3619
aVCCariTaw-hdW1Dn29pHTwg
p3620
aVkfg77mQvtF3JdRzzx85Hrg
p3621
aVdXRrb0Df_c_HhfB0C6_GoQ
p3622
aVBRjrFjOq7DRlpy86pG39rw
p3623
aVzZlHqWiCrCj0WKSNI1Nxlw
p3624
aVuQESC-xHevgohjFF2bA0yQ
p3625
aVUi13faBwbzgjxTo1doDXYA
p3626
aVS31SAf5EIBNwxqnuZDSEbg
p3627
aVCD0P8-GAqaBT8kerCc48GQ
p3628
aVBRydUrmdK4pZsbUvZ8tBAw
p3629
aVyJt2gQhLh5anhgqAS4xtNQ
p3630
aVZ-TW_TppnxT4TkFeavNaQw
p3631
aVt-zC1ZanRiiGiiktNKbgXQ
p3632
aVM8zof_imCUm7o--0rjRQPQ
p3633
aVfl4UNBptyNPzmLtO80tEtw
p3634
aVzo7YmohSjQx2B0gj2JdP2A
p3635
aV7M9NDoCNtGHPyDlJEA0b5g
p3636
aV4A3dQlNtdL8uaMgXbHIEHg
p3637
aV3DJLAIE0soSxYdvF50L5jQ
p3638
aVRa0_Qqw_xCLWDY2sfBiQvA
p3639
aVhCOTJenOdC8gZje6Xe1hPw
p3640
aVYR5pKY_7M1oOiLOejQNvDg
p3641
aV0oGZyMU4BscDlodrFQgMyw
p3642
aVoBB0FXaeZaPYZuVi7ht5PQ
p3643
aVEIRZ8U7iH-6zhbD0in_npQ
p3644
aVuF1-c9oji5qiHntYsmfKGg
p3645
aVutIPtVx2gryj5cWJzb1iYg
p3646
aVcGlNo0KrauU0lTMsD0LTIA
p3647
aVpKh4Pc96YbOg-6hBOOajAA
p3648
aVsKtmrRvPMn5GRTnHYd41CA
p3649
aVqMPi-jsq6HYfyjhtTytsyA
p3650
aVGk9FIJueIDMkb_cTAog2lw
p3651
aVUTsiOk98Um_9wuo-xTr7xQ
p3652
aVp9WaRRydDrqCfsFN2TeW-A
p3653
aV4csJ7ivW7iruUuU7OF-zXw
p3654
aVnWFHCiyFGh4ravKxkQpuVw
p3655
aVR0iP9B7gPpsed68_23J05A
p3656
aVibrcU_Ww7_lzGW12qxLVng
p3657
aV3L3Zz4unsNSmTA4MzgiEBQ
p3658
aVOb9-5OaME6ji87Enl7N95w
p3659
aVg5ssIpRQIajANIA93uUS6Q
p3660
aVh8Up2TvNUG2SPBrDpvILUg
p3661
aVLLZu1gmhfEgCgffnF1kZZQ
p3662
aVdMGIodRl0BYoOv2wOf0LBQ
p3663
aVL4fXk9Qi7yCOJr4VUyUS0g
p3664
aV6pTg22EaOGEGteqHjYrfCQ
p3665
aV2HmHgW3hRYvXYFmQyQtLuw
p3666
aVGEd7qJtNtXUXue-jWYzq2w
p3667
aVg-puIY054I9B_EfsXzoYmw
p3668
aVAIb__Kf80as48Ji4UJopwg
p3669
aV9yLW4HblC20KGGrIttZZoA
p3670
aVP5Z8LlG2-7j1kMrYyRN5lw
p3671
aVnPzmZjhk2bme-p5Dc9Zs9Q
p3672
aVj-rzAtsyoz8K1u7SiafhPg
p3673
aVMKUivtf5mSp8_T1wANLAVA
p3674
aVbORM7pDoAfwcmyQyUOc-zg
p3675
aVrjDiaaDgjyBXppF-dfUk-Q
p3676
aVfWTleN2AnA4QVInHPlV43A
p3677
aVJdLD4IbNHXpOkMfCToHi0g
p3678
aVePMylAubXOOURYSVifpb5w
p3679
aV78Ygb2kmDTEMIVtpS28qBw
p3680
aVTT_O4j6JHU3DmTK-Ws09jA
p3681
aVnSmgRZLcTk8Iw8T6uX9R3A
p3682
aVAHoj5_8_kgn1LPCv87ZGlA
p3683
aVicf8Tr75xv-QOnI7wZX9Xw
p3684
aVGEHeI4T07yczPilb5Y4Irw
p3685
aVcT1uaaumDO_eeJ19sWk0Bw
p3686
aVFGVljWrWYc36HwmnkIEgOg
p3687
aVdibcoDMYUmdVI1WQ18Mb6Q
p3688
aV7SNwnQxq2rP1LEo9UYh4OA
p3689
aVuQvCnliwFYdNtZetZ4G5rQ
p3690
aVSbgy1ZU_11xmbp7psPRRVw
p3691
aVfLVsyyaHwHhS3wwy5fh_rQ
p3692
aVyKMLB_QugVArGmTk65GPVg
p3693
asa(dp3694
Vyelping_since
p3695
V2004-10
p3696
sVvotes
p3697
(dp3698
Vfunny
p3699
I35
sVuseful
p3700
I86
sVcool
p3701
I43
ssVuser_id
p3702
Vwy6l_zUo7SN0qrvNRWgySw
p3703
sVname
p3704
VRyo
p3705
sVelite
p3706
(lp3707
I2007
asVtype
p3708
Vuser
p3709
sVcompliments
p3710
(dp3711
Vprofile
p3712
I1
sVfunny
p3713
I1
sVcute
p3714
I1
sVplain
p3715
I4
sVwriter
p3716
I2
sVlist
p3717
I5
sVnote
p3718
I1
sVphotos
p3719
I4
sVhot
p3720
I1
sVcool
p3721
I3
ssVfans
p3722
I7
sVaverage_stars
p3723
F3.52
sVreview_count
p3724
I170
sVfriends
p3725
(lp3726
V18kPq7GPye-YQ3LyKyAZPw
p3727
aVkwoxiKMyoYjB1wTCYAjYRg
p3728
aVGJYJX4SujVj3BR8v2F9PDQ
p3729
aVd82F_FFtowYtjGtxRySehA
p3730
aV9V14_mnEi28kNnN_aVhuSA
p3731
aVNhP0IQNpZkw6tQ0drfd-qQ
p3732
aVOuuum9bYCWxkQo2YFXc2iw
p3733
aV2Qo8EXnxxfTtUWIqPPih6g
p3734
aVVQnPx-vPNqVWg4nu0h2y_g
p3735
aVAaZdXn0I6F5bdIVwGpxdDA
p3736
aV0Ypfll3kJiL5OrxBBat_Qw
p3737
asa(dp3738
Vyelping_since
p3739
V2004-10
p3740
sVvotes
p3741
(dp3742
Vfunny
p3743
I1105
sVuseful
p3744
I2381
sVcool
p3745
I1914
ssVuser_id
p3746
VZWOj6LmzwGvMDh-A85EOtA
p3747
sVname
p3748
VHelen
p3749
sVelite
p3750
(lp3751
I2005
aI2006
aI2007
aI2008
aI2010
aI2011
aI2012
asVtype
p3752
Vuser
p3753
sVcompliments
p3754
(dp3755
Vprofile
p3756
I10
sVcute
p3757
I82
sVfunny
p3758
I70
sVplain
p3759
I102
sVwriter
p3760
I18
sVlist
p3761
I3
sVnote
p3762
I85
sVphotos
p3763
I57
sVhot
p3764
I265
sVcool
p3765
I211
sVmore
p3766
I16
ssVfans
p3767
I73
sVaverage_stars
p3768
F4.02
sVreview_count
p3769
I979
sVfriends
p3770
(lp3771
VXejvgD4CrkR7FeIkjwAjtQ
p3772
aVT7t5UdadpHua-YnmiFpcZw
p3773
aVWsPgO3ycZjRp7wFh18JdMQ
p3774
aVGJYJX4SujVj3BR8v2F9PDQ
p3775
aV4lc_H2Cf7CO0tCgyA3aSVQ
p3776
aVerzVZkeAaVu3DBJ5LPDMqw
p3777
aVp64irD26M0-tgKj0z1jgKw
p3778
aVpW91HUnVz6ssLZ4dY-ztyQ
p3779
aV4hIiNT06mDvf6sr5xBIbYA
p3780
aV-TFWC_iWVYJ80yp6ExwITw
p3781
aVkxkSjuIHutMTS88y1-b_Ew
p3782
aVw6Vv-kldGpmvSGqXvTbAdQ
p3783
aVq0AmYuwloWSTM8XtLPL3xA
p3784
aVc5VeP-OmOwnAMRuCEi6rHQ
p3785
aV3DGz2ergcZyJi7nt-SZ-iw
p3786
aVQBj2AL66bEAmK3ULkrn1Gw
p3787
aVayZlWyV1M2k_UWx1dreIDg
p3788
aVmTDwQ4I2hAHz2i5AC1ab3w
p3789
aVkAHUx9Z-vwaahW5cpoUg0w
p3790
aVdwG0Sk3rQMjCuzOjiMktFw
p3791
aVP-lfV8cdAgEOZJkw2dJpsw
p3792
aVBMWpDBMgkWr6kf__LNXEQw
p3793
aVp_NNA0vg4_2E-BkUMv5vrg
p3794
aVMWXx9a9hqL2DViV0bHCvMw
p3795
aVjDCblyKGE1UrulT7Dyzb0Q
p3796
aVYyPncV7fwWflne10BiCf6Q
p3797
aV7GNYQBLGYMFWdDpoGmTupA
p3798
aVGwj-__sLYJUXO3S2ajHUDw
p3799
aVeVV99D3EZvkuswIvIySKiw
p3800
aVE3C_gEhktux9Ca-Z2fmNTw
p3801
aVcj33h4koJXHgTmKDMjJ4Ew
p3802
aVz9QVdtpdSEmKAnM2PhJU9w
p3803
aVdD5mA6kwVlBHvrNtX9EyZQ
p3804
aV_qu_9jC6H-bmJjOkhySrHQ
p3805
aVniQLnZVEz-E9KtbqFRKWcA
p3806
aVTz0fxbPvR14UQw-eNP8IMw
p3807
aVYG0uLRYYrZDHDe6upOewTg
p3808
aV10O3dYXmF3R_OMcXBnTkWg
p3809
aVU2-wT6RT9MD6NYHUvaciqA
p3810
aVNhP0IQNpZkw6tQ0drfd-qQ
p3811
aVfaoGu7ngJ2t4I9DO5cxG_w
p3812
aVtgEcjq51Tphe-HHxF6JWfQ
p3813
aVNcSn54aNwLZAsxkKLpwqaA
p3814
aVqY_NCDmNpuTeVJf-Ps3J1Q
p3815
aVp4Jg_rO_AsCWZGMd_w8xjw
p3816
aVY7CLCx9zWb8UzZKaIb7QmA
p3817
aVMTVsyoL3dajP7VS4iuLP4Q
p3818
aV0QwV8PJk9PJDFaMNw1Fcsw
p3819
aV1T7sS2uH8MwodMiosz4wkg
p3820
aVkRwgq2L3IE536XqvOUK-Hw
p3821
aVCpheY42eWXCduOOovyr51Q
p3822
aVbG9HZ07pg5HkrMs5TfCi8Q
p3823
aVAaZdXn0I6F5bdIVwGpxdDA
p3824
aVmFg2qV7EVWlRNYHsVW0n4Q
p3825
aVpNDR8XUalk58ZXbkMyDFGg
p3826
aVqFHOh1DMqJ2Zb_pvqR1Muw
p3827
aV5pZpLeRPxVJTuDW21Y2jiQ
p3828
aV-YPTYQHZpIfZpUcY4qev6g
p3829
aVWYWjFF01WzwQNL_whGEkKQ
p3830
aVYeor4SyPHetnT28292KErw
p3831
aV2rlBbFPHyZjXSFSE8r551w
p3832
aVNrP_Th8NJliHito5YlBNeA
p3833
aVC9tCsaYVHdMcQeACECXDCA
p3834
aVbxEeVkcFEkaUn4cfgDGS-A
p3835
aVBj7NT_7NAHQgGys5kWGxuQ
p3836
aVGoqZDWwCvsgwiJRZJ27CiQ
p3837
aV-ANkfLbDf8aiBQ7vywIL6w
p3838
aVnKoB5cWZHXYUIUcQsUDogA
p3839
aV8wjeyLEjj_rTMCWx6jyFJg
p3840
aV7SVxpEnu760QstKGa3x2Mw
p3841
aVwjgOu3yfx9KLGn1oJKw4fg
p3842
aVQvDPEXXSHjW4pUAj8fVxqw
p3843
aV5YySKNsPmTeG69nT-dS6Hg
p3844
aVmKqXFHS3B-eD61mE_-6cWA
p3845
aV3WsDt1vFkLyCQqb_qUtFVw
p3846
aVnfNch-WQPzubm8DR4-S-1Q
p3847
aVXj7S-uW_l0WrjSG6TMTvcA
p3848
aVli148FKNnjlwmC5Mq-qFXg
p3849
aVesOYpgmzSVTS-waXGGXz1A
p3850
aVYLQCyYTCiU6YQEfMCAlRbQ
p3851
aVTu6tfhQBJXYYIxigsQC7mg
p3852
aVW8Ink4fQ5gm7W8YyllAreg
p3853
aVs74Gi6-mS5J5WnwGHKORfg
p3854
aVd1-z569rn3OkzrmK--w3xg
p3855
aVLNna6In2QmJrDfP27-rhNA
p3856
aVasVOf6vmcEUQGTfcVCPH0Q
p3857
aVN1bAS_Sf7VtbnoJzplY4rA
p3858
aV0IAOkW3KD1Dsx2hnwb0CSA
p3859
aVkl0zgp60RM09pySxA5NubA
p3860
aV92j9xiUMOsM3HviIGoR8Yg
p3861
aVAP6udBIStvWLY0T5rS_24A
p3862
aVUni8Djpy2uCj2xsnksVhSg
p3863
aVpTqo5DhBWZkgYWVGyJicQw
p3864
aVCRywkebZtGq0lKcbRlOPqQ
p3865
aVo60ZwKQErFnYxsmLfxx9YA
p3866
aVkuP0AMnSGgkLfNSt0wOAgA
p3867
aVfr3HXiNw5JiIIspADCS5gA
p3868
aVPWXJpyVyAKtVehw4suOimg
p3869
aV4BEP7fN-0q5V2ehJr4icKw
p3870
aVdCakomjEj1lvHwvJyAOwSA
p3871
aVU_30FZG0VUdAuxGR6kh9Yg
p3872
aVxcfif77wTMGM386sUkKJ4Q
p3873
aVmfIngaq8vE8XmKETBEl2gw
p3874
aV98f92DVyKhoQZ94DbTLVBQ
p3875
aVoWKBHNGxTyp7B0Yr1dRxpw
p3876
aVBKo0QW3LGBzAZug4doJrgA
p3877
aVMtVDi4UFnKe1dxpKyLyirA
p3878
aVdd1dQWM1Qx7ezQ0SPvw6xg
p3879
aVA4PEFU6xorg3Gr8MssKi-Q
p3880
aV4MMz6ukNOUcyXYazB81RGg
p3881
aVuBkevNush7GHLLionw2l3A
p3882
aVXJMSexMQLfy8oc4o7s05ZQ
p3883
aV_hhWwE-ZZKUWSoXSsuPoog
p3884
aVV4VW69mBsRzfa3mLmyBqLQ
p3885
aVgyBs-PcHasLx7IF9B6OBZA
p3886
aV2dcPh9j30SrIYO9tB2YXLw
p3887
aVpoqWYRoVOHvBiRcKmzR56w
p3888
aVt4kgXeb0wgCDdxHt3Ihfdw
p3889
aVzZK4-tyLcQ2S2Hu4ArKHIA
p3890
aVISmEAuxJ_qWPh6iWKdU10Q
p3891
aVTiADYdOtXxkjhl8nR8SfnQ
p3892
aVoBB0FXaeZaPYZuVi7ht5PQ
p3893
aV4qRz_FoKPwHNvPdESPa8xA
p3894
asa(dp3895
Vyelping_since
p3896
V2004-10
p3897
sVvotes
p3898
(dp3899
Vfunny
p3900
I45
sVuseful
p3901
I179
sVcool
p3902
I22
ssVuser_id
p3903
ViToySZiFejGsgzWc2i3_jA
p3904
sVname
p3905
VN
p3906
sVelite
p3907
(lp3908
sVtype
p3909
Vuser
p3910
sVcompliments
p3911
(dp3912
Vprofile
p3913
I1
sVplain
p3914
I3
sVwriter
p3915
I3
sVnote
p3916
I2
sVcool
p3917
I1
sVmore
p3918
I1
ssVfans
p3919
I2
sVaverage_stars
p3920
F3.15
sVreview_count
p3921
I192
sVfriends
p3922
(lp3923
Ve47HKDEDiBV_MIzCqmtc3g
p3924
aV5MJ97lRS_ZD2t8C47EYaHQ
p3925
asa(dp3926
Vyelping_since
p3927
V2008-02
p3928
sVvotes
p3929
(dp3930
Vfunny
p3931
I331
sVuseful
p3932
I521
sVcool
p3933
I424
ssVuser_id
p3934
VLdS4fnqUebNW-MYd1-noKA
p3935
sVname
p3936
VSuzie
p3937
sVelite
p3938
(lp3939
I2008
aI2009
aI2010
aI2011
aI2012
asVtype
p3940
Vuser
p3941
sVcompliments
p3942
(dp3943
Vprofile
p3944
I2
sVfunny
p3945
I15
sVcute
p3946
I2
sVplain
p3947
I60
sVwriter
p3948
I19
sVlist
p3949
I1
sVnote
p3950
I11
sVphotos
p3951
I1
sVhot
p3952
I24
sVmore
p3953
I3
sVcool
p3954
I58
ssVfans
p3955
I11
sVaverage_stars
p3956
F4.0
sVreview_count
p3957
I129
sVfriends
p3958
(lp3959
Vgzvltlt2n97tZMnEXihbBg
p3960
aVkGgAARL2UmvCcTRfiscjug
p3961
aVr5vDrlFu45VK6kW4vyuvMg
p3962
aVwgoIXsQKdKWmybe2g_1ZIQ
p3963
aVIO70fCrDS1GlrEDkAvsKYg
p3964
aV3uvenNn_QjmGNyU4f4T9uw
p3965
aVyVvh8FpYuFU9M79ewZYjIQ
p3966
aVsxhoTCi-z-0cDYM7_nx-dA
p3967
aVf138s4k71f5rEMyBKnPSiA
p3968
aVVuv-GAG__usIpJ7mM-rfsg
p3969
aVouacqQBQQMGQpVq7Z6u5RA
p3970
aV4ebsu66rib5Mo3RxP0E1jA
p3971
aVOxjWBSNQPpt-Kc7HfoU89w
p3972
aVR6Wzse9vtk0mDQLhUXpyxw
p3973
aV2PwXZjHOoWT9D5u6VbACNg
p3974
aVN_q2Wv1ckXqLMuIRaAzYNg
p3975
aVe_xPiYSiemLE7qzcsMpWzA
p3976
aVUUtjl7g6TmZs6jerHo4tsg
p3977
aVax8rl8kEo3r4lBtuf39X1w
p3978
aVWct6wa5rvtfoEisjjbg0ag
p3979
aVxd247Gel7DcjM5bokNqDtw
p3980
aVdwo63le7_tiIMJjs7rOXug
p3981
aVe_LOYJUSyc-yXva9qwJKnw
p3982
aVdHVdhgc-9Wf4246uCkuAmg
p3983
asa(dp3984
Vyelping_since
p3985
V2008-11
p3986
sVvotes
p3987
(dp3988
Vfunny
p3989
I58
sVuseful
p3990
I229
sVcool
p3991
I68
ssVuser_id
p3992
Vza5Q2uYrTmky9w_3h9k_wQ
p3993
sVname
p3994
VSteven
p3995
sVelite
p3996
(lp3997
I2012
aI2013
aI2014
aI2015
asVtype
p3998
Vuser
p3999
sVcompliments
p4000
(dp4001
Vcute
p4002
I1
sVfunny
p4003
I1
sVplain
p4004
I6
sVwriter
p4005
I3
sVnote
p4006
I4
sVhot
p4007
I3
sVcool
p4008
I8
ssVfans
p4009
I8
sVaverage_stars
p4010
F4.04
sVreview_count
p4011
I350
sVfriends
p4012
(lp4013
V23bCUONbJfIrtsLgX7Dgvg
p4014
aVl1eXX3p2WL_02FWw5TXhsA
p4015
aV8E0DGec8LNn6oDmPHmj-mg
p4016
aV7zpDhrRZRTGCkAh3SHbEww
p4017
aVE_s-wra-91d3IgUUKguSYA
p4018
aVgBID8jIwsQIE5W_Zr0Vhjg
p4019
aVeOBvN22GfIAUETEthSvNVQ
p4020
aVr9YT-wfk8DlMyq_q4a_saQ
p4021
aVMqu3WC9tosbqI626mrEbrg
p4022
aV5h8l-jqqDS2Cc8pFy3vMOQ
p4023
aVgxOZMidTXSm2z_0AecgbGw
p4024
aVIT0sp0lM1ETIPQO1Z0c4oQ
p4025
asa(dp4026
Vyelping_since
p4027
V2004-10
p4028
sVvotes
p4029
(dp4030
Vfunny
p4031
I204
sVuseful
p4032
I255
sVcool
p4033
I217
ssVuser_id
p4034
VT4kuUr_iJiywOPdyM7gTHQ
p4035
sVname
p4036
Vjenna
p4037
sVelite
p4038
(lp4039
I2005
aI2006
aI2007
asVtype
p4040
Vuser
p4041
sVcompliments
p4042
(dp4043
Vprofile
p4044
I2
sVcute
p4045
I1
sVfunny
p4046
I2
sVplain
p4047
I11
sVwriter
p4048
I11
sVlist
p4049
I1
sVnote
p4050
I8
sVphotos
p4051
I1
sVhot
p4052
I12
sVmore
p4053
I5
sVcool
p4054
I20
ssVfans
p4055
I15
sVaverage_stars
p4056
F4.15
sVreview_count
p4057
I155
sVfriends
p4058
(lp4059
V18kPq7GPye-YQ3LyKyAZPw
p4060
aVrpOyqD_893cqmDAtJLbdog
p4061
aV4U9kSBLuBDU391x6bxU-YA
p4062
aVi63u3SdbrLsP4FxiSKP0Zw
p4063
aVT7t5UdadpHua-YnmiFpcZw
p4064
aVO6JwI9Ide_fIn_t_6k5IQg
p4065
aVpnrGw4ciBXJ6U5QB2m0F5g
p4066
aVr5uiIxwJ-I-oHBkNY2Ha3Q
p4067
aVW0M8csYKD2ryUsr6OsACyA
p4068
aVAZ8CTtwr-4sGM2kZqF6qig
p4069
aVDglSIRnl69GUqHvVnG3QaA
p4070
aVkxkSjuIHutMTS88y1-b_Ew
p4071
aVP-lfV8cdAgEOZJkw2dJpsw
p4072
aVqbfQRHLvZk5WSkKY0l_lMw
p4073
aVKUqpJ9eKREuvlnlitJJRYg
p4074
aVMg1xq4FKqR0PJd2jJ1emhg
p4075
aVp4Jg_rO_AsCWZGMd_w8xjw
p4076
aVAaZdXn0I6F5bdIVwGpxdDA
p4077
aVn1GSQ7VT9sTL5MlCWolbNw
p4078
aVkYi1-z_eErTLozHG9gBYGw
p4079
aVZqpyZs1Gp9MZCIADk72vww
p4080
aVuaoukpaSPrhaLE9-eLJ-Cw
p4081
aVCRywkebZtGq0lKcbRlOPqQ
p4082
aVLes7_9h8xQDZuZbHhjVYkw
p4083
asa(dp4084
Vyelping_since
p4085
V2007-09
p4086
sVvotes
p4087
(dp4088
Vfunny
p4089
I1975
sVuseful
p4090
I2314
sVcool
p4091
I1808
ssVuser_id
p4092
VYkafUZz74f5C8ozi5NX73g
p4093
sVname
p4094
VFelicia
p4095
sVelite
p4096
(lp4097
I2008
aI2009
asVtype
p4098
Vuser
p4099
sVcompliments
p4100
(dp4101
Vprofile
p4102
I42
sVfunny
p4103
I568
sVcute
p4104
I133
sVplain
p4105
I468
sVwriter
p4106
I73
sVlist
p4107
I24
sVnote
p4108
I330
sVphotos
p4109
I50
sVhot
p4110
I658
sVmore
p4111
I44
sVcool
p4112
I913
ssVfans
p4113
I76
sVaverage_stars
p4114
F3.5
sVreview_count
p4115
I430
sVfriends
p4116
(lp4117
V8J4IIYcqBlFch8T90N923A
p4118
aVuguXfIEpI65jSCH5MgUDgA
p4119
aVHSxydf5uBUVPQiInEpYkYQ
p4120
aVLroJKi7_BWqDT7lbHvt6kg
p4121
aVgWcz4QFTW76q8VtpIlZEHQ
p4122
aVRRs36fV1eWCkA3kJLDab_A
p4123
aVuiL0cZ-P_SVwH1_ZWMyJ3A
p4124
aVywIwGpYuR9cwCUX5Roz9gQ
p4125
aVqbfQRHLvZk5WSkKY0l_lMw
p4126
aV8qoEnuFvMAQWv7qmhKyulw
p4127
aVrEymxos4y38P_tYQiIKNUg
p4128
aV_0ldnpmfG5sMwd3jqZDM2w
p4129
aVjy0DFl1mEscUXTonv3YXmA
p4130
aVJ3rNWRLRuZJ_0xsJalIhlA
p4131
aVwj9rLAtpVXAKeiNZQhM85Q
p4132
aVNUeLSLukiPPCSK6EVdUo_Q
p4133
aVvyfsQo-estP8EfiIFMsL6g
p4134
aVUf_cU4nY39SWo_Vs0U2Sgw
p4135
aVJ3W9qboYa8reEqlPoohIzQ
p4136
aVrJpWhiKh6On5NKhzCbQc2Q
p4137
aVifD7o8Mi67yNYwgWL5CbKg
p4138
aVE7tozhm23vJSKBfozHWEMQ
p4139
aVfmWyb9q_6MTuun75J-tr1A
p4140
aVpTmXoPqa-nkfdve-S_p0hQ
p4141
aVUt4KWM8SOfo9VnFIQcibdg
p4142
aVLN_W5KB_-9S8bxxi6WIFSQ
p4143
aV__AGxxnesE_oWHxSztso1w
p4144
aVZAZnD2Nw6OCiIWTJa8v-8Q
p4145
aVxOK3i0wgmkpGu54BuIcwQA
p4146
aVs8tJxLDRlogRrsp00aghLQ
p4147
aVpWhMf2F1xuejOSWCrqhUxA
p4148
aVVuUSft3-5NDrOnSwov4IXw
p4149
aVzhV2H02tC04MGbgch5sqNw
p4150
aVc_61dliTkbLKfXcyfcxPBA
p4151
aV0ZtoCu_CtmdvxewmK8WJ6g
p4152
aVSlH-AIk0d0NgfbhyeIf7cw
p4153
aVjqiDWycSAWIhSHIfN_PjAw
p4154
aVqWV1sSKn53BmghpP56IIfA
p4155
aVEoEWaYegmzRUfteFycop9Q
p4156
aV9IEVc_1NCzHVMN5FSNE05w
p4157
aVvgAtFwJkTVc8Vow2eVTOtg
p4158
aV0cOr6YX61FwOkVM1uECbvA
p4159
aVZJ-HbsXL91pbj8M1sPCx5g
p4160
aVhFrGxQr2QP0FHFHDapGn2Q
p4161
aVxcPyzdHUi5YHvKRFvync-w
p4162
aV7R7BBD1KxhKHiiQ3OPI1Xw
p4163
aV6onn2jjYCndvXWRf8W9ydA
p4164
aVkuEKOd7JEnDun43SUsjJ7w
p4165
aVvrXeHQ5cq_0cpczWVfVWPA
p4166
aVZElK1Mokb8frc6wKR1Jrbw
p4167
aVhjeUJa_wvTkhDkhji4FWfw
p4168
aVkgk0CN19otnUtfNuQZ1dsA
p4169
aVcIzaqbZCvThYTtddKWzYVQ
p4170
aVuv0BTuVf_t0mLVZxlRRS2w
p4171
aV39fBaSkch83WRI7JO0LcPg
p4172
aV6B3NlMRN22yf1hT-OnKH2g
p4173
aV9bkeCCr28lE7vxg1GvWsiw
p4174
aV1VthqrbEhYxl4CO1Vucdrg
p4175
aVSDiZ_EcAnPEaeFkR8d7CIw
p4176
aVdRSol9FDijztqnKBXTanCg
p4177
aVv2pSCNzbuj80NW4wsuMa5Q
p4178
aV8E0DGec8LNn6oDmPHmj-mg
p4179
aVjIDhZ23eeUzFGPOxgxG3Qw
p4180
aVTJ34RyWK_fVKPSPtSaHxjg
p4181
aV87ytRWXhhRW5FcVrOLKf9w
p4182
aVXMpP1_OGTjDi2cVMfZ2XJg
p4183
aVVo6PjNjXwagaGtwSUxrg_Q
p4184
aVboIkH_QRKZ-JjNojxzGjNg
p4185
aVgxF17eOwjIg1gnvvkLPiTA
p4186
aVY-PtvI5uredvJApbWCmn9Q
p4187
aViXU9nJvHRtI2o4p8sqt3XQ
p4188
aV-Rk_M0veSqcwPrmkEKIiRQ
p4189
aVneORMaL9NC51odd9W-8HhQ
p4190
aV1y3VHOwaqiLviE6QN7GAbw
p4191
aVEqSGjub4LsQpx6sCh3UQcA
p4192
aVsdTdf5zwsPGDw4vBnKks-w
p4193
aV25uBXnNZgHDaovC1VTENrQ
p4194
aV3ZKzPD_6tkF1cH0LwKeHJA
p4195
aVID0f8slG5-Ch9TlFDrFK1Q
p4196
aV7it3OYZIWDcgC3_09rAVIw
p4197
aVkCTnDWHBiBktXougIKRMtA
p4198
aVKmwykgOUkLVMmnR0Z5abGQ
p4199
aV0gKwWla8j639E5RmgiijVQ
p4200
aV6QJVy0q9fVCVLdND8FAIaA
p4201
aVhVnKN10iRKwMqY1vt5rNCA
p4202
aVFXB--xaRS3jGwfKAZD1sIQ
p4203
aVqbVAB3Xxxtc_OzsDNCmUBg
p4204
aViOjSsWv7YCAhnqbLP4KbkQ
p4205
aVyUmWe5BcCI24HrO3Y2gKBA
p4206
aVLkA82wz0lbbNtUKILki0zw
p4207
aV9hCMcrhNykdVh0ZOJJoVVA
p4208
aVl-UV2WLxUXUxe3BU7a7THg
p4209
aV4CJGQajGdc8JwFneADetcQ
p4210
aV20oSUpGigEzN5t2G7lhEKQ
p4211
aVHPpmB1075Hdl7CP9KqDQTw
p4212
aVNT3wqGE-cPLFurzlWyQTsA
p4213
aVIPJTjIzF6T4IGQ0ha933aA
p4214
aV7h7IlYzn2j2b7AH-801EtQ
p4215
aVaw8KqLgBSC7OHyz7op6Drg
p4216
aVGzlb7SsWzGwkRLHNXtfapA
p4217
aVnTlUp9sKsAAd05k_pUYYHw
p4218
aV6ZpssMOusA0l4kNosCGOqQ
p4219
aVWKLzzpOUDsjom96cjyuEow
p4220
aV49r9640dX3NPnq3bQiah2A
p4221
aVytr46wNbedr8-iqSZngl8g
p4222
aVOqOCMRpVNvvdPDMhoG_DCA
p4223
aVPy-iGXvODnHodfVXWmpaTg
p4224
aV2nMU77JsSdKGprPmS0X8zw
p4225
aVCtL60kzvOD7TP6UZhDA3wQ
p4226
aVBkW7uyJ6nnvBU38naJplOg
p4227
aVUTGqubcmDv1cNe5-k8-OeA
p4228
aVrzmQF6tNYgQPyzx0z0rB3A
p4229
aVP_cSupqqivcZ7kSt-aXcdA
p4230
aV8qm18ghIA1EUHJrBSVIybw
p4231
aVdf8Xa6k20387pjRjdItZTg
p4232
aVmRAPwcPN9c6aGRrMYDmjtg
p4233
aV_QHDTunNfbvtdbv_JqQD4Q
p4234
aV8MGfo567WSrB23LaYv8-_w
p4235
aVfoEiclMVVSlcG4Bg8dy8sA
p4236
aVfRbbPPUdMCmL9o39yshi2g
p4237
aVaA3ECfQ5L0sW_iAbBeSuZg
p4238
aVXviU5f0Cu5CPfSnghj3Uxw
p4239
aVPOiiNAnA2XCHJIzfM6GslA
p4240
aVsegRxemFobkHWDBIkMb4Qg
p4241
aVAQPw3bFtjKzzSv3h-enMMQ
p4242
aVCfLfTEa6Cf_O1SRm8UhEgw
p4243
aVe7qNJjfyaQ7nLsh2HCdWMg
p4244
aVhpFDt69a2J2q904jWM2qpw
p4245
aV9cIPBZV3oRhb7Y8UA0agfQ
p4246
aVbovazGyjbR8JaHcOlPdthg
p4247
aVYX2Ww0IfTYwq2Iwfm4s9ug
p4248
aVIyEdBo884XBPmNLhIp8dig
p4249
aV307MwBE52szyAgIp1SgNAw
p4250
aVmBPsaHMTscYuyHW1zpK09w
p4251
aVSPJd_LMzx36yOhO_XrP9nA
p4252
aVjyHL9luefajQuMw9tfmJsQ
p4253
aVMdCZyRN4HfrfnmJlvTugEg
p4254
aVyTJrNdQQVCfodoMMWVSX2w
p4255
aVu0UhZ0zP1cyyvXmRBrwdrQ
p4256
aVIJc5TEaoVtrZUs7mxZPHQg
p4257
aVDYCEI9sFo773Do_wz6Untw
p4258
aV45kqQ-wAUTYzLNVIpYHnrA
p4259
aVA3dfIkfnHmOgRbFEqzDUNw
p4260
aVK-UXdoL-HVuh5PZqvEzCxA
p4261
aVspJUPXI7QaIctU0FO5c42w
p4262
aVdQT8hTHKHtolyDiklt5yKw
p4263
aVwtPpWbV7llbhNQj5ELkBiQ
p4264
aVZSmQDCqRzTPdgJHRJ8Xr9g
p4265
aVBCwK2P_98RHuq2sOrkZgTQ
p4266
aV1Lu8MAjA8byyrwHQoYpiVQ
p4267
aV8CWvJf52Ur_SRihSKWJfuQ
p4268
aVxgB4W5TmyiaeRs-QDBvRXQ
p4269
aVsELE9gPbLJKk3wuoOeowhA
p4270
aV6co_C9Z5GZKF-Ip40aJ9Xw
p4271
aVaOOLEtSFzC6G2tzXL9pg2w
p4272
aVwiwQO5wenvFOB8N1DQBeYw
p4273
aVeQCH00NRV7s_WwDNUoszXQ
p4274
aVl2FAzcmrBNhmuF7G7XdQpg
p4275
aVCDTNFwOXygHDxxaiIyzzBA
p4276
aVsuplM-FJ_K5hZ5jLltL78A
p4277
aVjAk0vIo4Vs3Q02grZDRuDg
p4278
asa.